PRU Assembler Unix v2.3.1 Sun Mar 31 20:55:35 2019

Tools Copyright (c) 2012-2017 Texas Instruments Incorporated
pru1_statemachine_dma.asm                                            PAGE    1

       1;******************************************************************************
       2;* PRU C/C++ Codegen                                              Unix v2.3.1 *
       3;* Date/Time created: Sun Mar 31 20:55:35 2019                                *
       4;******************************************************************************
       5        .compiler_opts --abi=eabi --endian=little --hll_source=on --object_format=elf --silicon_versio
       6
       7$C$DW$CU        .dwtag  DW_TAG_compile_unit
       8        .dwattr $C$DW$CU, DW_AT_name("pru1_statemachine_dma.c")
       9        .dwattr $C$DW$CU, DW_AT_producer("TI PRU C/C++ Codegen Unix v2.3.1 Copyright (c) 2012-2017 Tex
      10        .dwattr $C$DW$CU, DW_AT_TI_version(0x01)
      11        .dwattr $C$DW$CU, DW_AT_comp_dir("/home/joerg/retrocmp/dec/UniBone/10.01_base/2_src/pru1")
      12        .global __PRU_CREG_PRU_CFG
      13$C$DW$1 .dwtag  DW_TAG_variable
      14        .dwattr $C$DW$1, DW_AT_name("mailbox")
      15        .dwattr $C$DW$1, DW_AT_TI_symbol_name("mailbox")
      16        .dwattr $C$DW$1, DW_AT_type(*$C$DW$T$132)
      17        .dwattr $C$DW$1, DW_AT_declaration
      18        .dwattr $C$DW$1, DW_AT_external
      19        .dwattr $C$DW$1, DW_AT_decl_file("/home/joerg/retrocmp/dec/UniBone/10.01_base/2_src/shared/mai
      20        .dwattr $C$DW$1, DW_AT_decl_line(0xb8)
      21        .dwattr $C$DW$1, DW_AT_decl_column(0x1f)
      22
      23$C$DW$2 .dwtag  DW_TAG_variable
      24        .dwattr $C$DW$2, DW_AT_name("buslatches")
      25        .dwattr $C$DW$2, DW_AT_TI_symbol_name("buslatches")
      26        .dwattr $C$DW$2, DW_AT_type(*$C$DW$T$134)
      27        .dwattr $C$DW$2, DW_AT_declaration
      28        .dwattr $C$DW$2, DW_AT_external
      29        .dwattr $C$DW$2, DW_AT_decl_file("pru1_buslatches.h")
      30        .dwattr $C$DW$2, DW_AT_decl_line(0x2f)
      31        .dwattr $C$DW$2, DW_AT_decl_column(0x15)
      32
      33        .weak   ||CT_CFG||
      34 00000000                 ||CT_CFG||:     .usect  ".creg.PRU_CFG.noload.near",68,1
      35$C$DW$3 .dwtag  DW_TAG_variable
      36        .dwattr $C$DW$3, DW_AT_name("CT_CFG")
      37        .dwattr $C$DW$3, DW_AT_TI_symbol_name("CT_CFG")
      38        .dwattr $C$DW$3, DW_AT_location[DW_OP_addr ||CT_CFG||]
      39        .dwattr $C$DW$3, DW_AT_type(*$C$DW$T$136)
      40        .dwattr $C$DW$3, DW_AT_external
      41        .dwattr $C$DW$3, DW_AT_decl_file("/home/joerg/retrocmp/dec/UniBone/91_3rd_party/pru-c-compile/
      42        .dwattr $C$DW$3, DW_AT_decl_line(0xf2)
      43        .dwattr $C$DW$3, DW_AT_decl_column(0x17)
      44
      45$C$DW$4 .dwtag  DW_TAG_variable
      46        .dwattr $C$DW$4, DW_AT_name("timeout_target")
      47        .dwattr $C$DW$4, DW_AT_TI_symbol_name("timeout_target")
      48        .dwattr $C$DW$4, DW_AT_type(*$C$DW$T$23)
      49        .dwattr $C$DW$4, DW_AT_declaration
      50        .dwattr $C$DW$4, DW_AT_external
      51        .dwattr $C$DW$4, DW_AT_decl_file("pru1_utils.h")
      52        .dwattr $C$DW$4, DW_AT_decl_line(0x8b)
      53        .dwattr $C$DW$4, DW_AT_decl_column(0x11)
      54
      55$C$DW$5 .dwtag  DW_TAG_variable
PRU Assembler Unix v2.3.1 Sun Mar 31 20:55:35 2019

Tools Copyright (c) 2012-2017 Texas Instruments Incorporated
pru1_statemachine_dma.asm                                            PAGE    2

      56        .dwattr $C$DW$5, DW_AT_name("sm_arb")
      57        .dwattr $C$DW$5, DW_AT_TI_symbol_name("sm_arb")
      58        .dwattr $C$DW$5, DW_AT_type(*$C$DW$T$137)
      59        .dwattr $C$DW$5, DW_AT_declaration
      60        .dwattr $C$DW$5, DW_AT_external
      61        .dwattr $C$DW$5, DW_AT_decl_file("pru1_statemachine_arbitration.h")
      62        .dwattr $C$DW$5, DW_AT_decl_line(0x29)
      63        .dwattr $C$DW$5, DW_AT_decl_column(0x23)
      64
      65        .global ||sm_dma||
      66        .common ||sm_dma||,9,1
      67$C$DW$6 .dwtag  DW_TAG_variable
      68        .dwattr $C$DW$6, DW_AT_name("sm_dma")
      69        .dwattr $C$DW$6, DW_AT_TI_symbol_name("sm_dma")
      70        .dwattr $C$DW$6, DW_AT_location[DW_OP_addr ||sm_dma||]
      71        .dwattr $C$DW$6, DW_AT_type(*$C$DW$T$139)
      72        .dwattr $C$DW$6, DW_AT_external
      73        .dwattr $C$DW$6, DW_AT_decl_file("pru1_statemachine_dma.c")
      74        .dwattr $C$DW$6, DW_AT_decl_line(0x47)
      75        .dwattr $C$DW$6, DW_AT_decl_column(0x14)
      76
      77
      78$C$DW$7 .dwtag  DW_TAG_subprogram
      79        .dwattr $C$DW$7, DW_AT_name("buslatches_pru0_dataout")
      80        .dwattr $C$DW$7, DW_AT_TI_symbol_name("buslatches_pru0_dataout")
      81        .dwattr $C$DW$7, DW_AT_declaration
      82        .dwattr $C$DW$7, DW_AT_external
      83        .dwattr $C$DW$7, DW_AT_decl_file("pru1_buslatches.h")
      84        .dwattr $C$DW$7, DW_AT_decl_line(0xba)
      85        .dwattr $C$DW$7, DW_AT_decl_column(0x06)
      86$C$DW$8 .dwtag  DW_TAG_formal_parameter
      87        .dwattr $C$DW$8, DW_AT_type(*$C$DW$T$23)
      88
      89        .dwendtag $C$DW$7
      90
      91
      92$C$DW$9 .dwtag  DW_TAG_subprogram
      93        .dwattr $C$DW$9, DW_AT_name("iopageregisters_write_w")
      94        .dwattr $C$DW$9, DW_AT_TI_symbol_name("iopageregisters_write_w")
      95        .dwattr $C$DW$9, DW_AT_type(*$C$DW$T$22)
      96        .dwattr $C$DW$9, DW_AT_declaration
      97        .dwattr $C$DW$9, DW_AT_external
      98        .dwattr $C$DW$9, DW_AT_decl_file("/home/joerg/retrocmp/dec/UniBone/10.01_base/2_src/shared/iop
      99        .dwattr $C$DW$9, DW_AT_decl_line(0xc2)
     100        .dwattr $C$DW$9, DW_AT_decl_column(0x09)
     101$C$DW$10        .dwtag  DW_TAG_formal_parameter
     102        .dwattr $C$DW$10, DW_AT_type(*$C$DW$T$23)
     103
     104$C$DW$11        .dwtag  DW_TAG_formal_parameter
     105        .dwattr $C$DW$11, DW_AT_type(*$C$DW$T$24)
     106
     107        .dwendtag $C$DW$9
     108
     109
     110$C$DW$12        .dwtag  DW_TAG_subprogram
PRU Assembler Unix v2.3.1 Sun Mar 31 20:55:35 2019

Tools Copyright (c) 2012-2017 Texas Instruments Incorporated
pru1_statemachine_dma.asm                                            PAGE    3

     111        .dwattr $C$DW$12, DW_AT_name("iopageregisters_write_b")
     112        .dwattr $C$DW$12, DW_AT_TI_symbol_name("iopageregisters_write_b")
     113        .dwattr $C$DW$12, DW_AT_type(*$C$DW$T$22)
     114        .dwattr $C$DW$12, DW_AT_declaration
     115        .dwattr $C$DW$12, DW_AT_external
     116        .dwattr $C$DW$12, DW_AT_decl_file("/home/joerg/retrocmp/dec/UniBone/10.01_base/2_src/shared/io
     117        .dwattr $C$DW$12, DW_AT_decl_line(0xc3)
     118        .dwattr $C$DW$12, DW_AT_decl_column(0x09)
     119$C$DW$13        .dwtag  DW_TAG_formal_parameter
     120        .dwattr $C$DW$13, DW_AT_type(*$C$DW$T$23)
     121
     122$C$DW$14        .dwtag  DW_TAG_formal_parameter
     123        .dwattr $C$DW$14, DW_AT_type(*$C$DW$T$22)
     124
     125        .dwendtag $C$DW$12
     126
     127
     128$C$DW$15        .dwtag  DW_TAG_subprogram
     129        .dwattr $C$DW$15, DW_AT_name("iopageregisters_read")
     130        .dwattr $C$DW$15, DW_AT_TI_symbol_name("iopageregisters_read")
     131        .dwattr $C$DW$15, DW_AT_type(*$C$DW$T$22)
     132        .dwattr $C$DW$15, DW_AT_declaration
     133        .dwattr $C$DW$15, DW_AT_external
     134        .dwattr $C$DW$15, DW_AT_decl_file("/home/joerg/retrocmp/dec/UniBone/10.01_base/2_src/shared/io
     135        .dwattr $C$DW$15, DW_AT_decl_line(0xc1)
     136        .dwattr $C$DW$15, DW_AT_decl_column(0x09)
     137$C$DW$16        .dwtag  DW_TAG_formal_parameter
     138        .dwattr $C$DW$16, DW_AT_type(*$C$DW$T$23)
     139
     140$C$DW$17        .dwtag  DW_TAG_formal_parameter
     141        .dwattr $C$DW$17, DW_AT_type(*$C$DW$T$60)
     142
     143        .dwendtag $C$DW$15
     144
     145
     146$C$DW$18        .dwtag  DW_TAG_subprogram
     147        .dwattr $C$DW$18, DW_AT_name("sm_arb_state_idle")
     148        .dwattr $C$DW$18, DW_AT_TI_symbol_name("sm_arb_state_idle")
     149        .dwattr $C$DW$18, DW_AT_type(*$C$DW$T$22)
     150        .dwattr $C$DW$18, DW_AT_declaration
     151        .dwattr $C$DW$18, DW_AT_external
     152        .dwattr $C$DW$18, DW_AT_decl_file("pru1_statemachine_arbitration.h")
     153        .dwattr $C$DW$18, DW_AT_decl_line(0x2d)
     154        .dwattr $C$DW$18, DW_AT_decl_column(0x09)
     155        .dwendtag $C$DW$18
     156
     157
     158$C$DW$19        .dwtag  DW_TAG_subprogram
     159        .dwattr $C$DW$19, DW_AT_name("__delay_cycles")
     160        .dwattr $C$DW$19, DW_AT_TI_symbol_name("__delay_cycles")
     161        .dwattr $C$DW$19, DW_AT_declaration
     162        .dwattr $C$DW$19, DW_AT_external
     163$C$DW$20        .dwtag  DW_TAG_formal_parameter
     164        .dwattr $C$DW$20, DW_AT_type(*$C$DW$T$11)
     165
PRU Assembler Unix v2.3.1 Sun Mar 31 20:55:35 2019

Tools Copyright (c) 2012-2017 Texas Instruments Incorporated
pru1_statemachine_dma.asm                                            PAGE    4

     166        .dwendtag $C$DW$19
     167
     168;       /home/joerg/retrocmp/dec/UniBone/91_3rd_party/pru-c-compile/ti-cgt-pru_2.3.1//bin/optpru --gen
     169;       /home/joerg/retrocmp/dec/UniBone/91_3rd_party/pru-c-compile/ti-cgt-pru_2.3.1//bin/acpiapru -@/
     170 00000000                         .sect   ".text:sm_dma_state_99"
     171        .clink
     172
     173$C$DW$21        .dwtag  DW_TAG_subprogram
     174        .dwattr $C$DW$21, DW_AT_name("sm_dma_state_99")
     175        .dwattr $C$DW$21, DW_AT_low_pc(||sm_dma_state_99||)
     176        .dwattr $C$DW$21, DW_AT_high_pc(0x00)
     177        .dwattr $C$DW$21, DW_AT_TI_symbol_name("sm_dma_state_99")
     178        .dwattr $C$DW$21, DW_AT_type(*$C$DW$T$22)
     179        .dwattr $C$DW$21, DW_AT_TI_begin_file("pru1_statemachine_dma.c")
     180        .dwattr $C$DW$21, DW_AT_TI_begin_line(0x118)
     181        .dwattr $C$DW$21, DW_AT_TI_begin_column(0x10)
     182        .dwattr $C$DW$21, DW_AT_decl_file("pru1_statemachine_dma.c")
     183        .dwattr $C$DW$21, DW_AT_decl_line(0x118)
     184        .dwattr $C$DW$21, DW_AT_decl_column(0x10)
     185        .dwattr $C$DW$21, DW_AT_TI_max_frame_size(0x14)
     186        .dwpsn  file "pru1_statemachine_dma.c",line 280,column 34,is_stmt,address ||sm_dma_state_99||,
     187
     188        .dwfde $C$DW$CIE, ||sm_dma_state_99||
     189;----------------------------------------------------------------------
     190; 280 | static uint8_t sm_dma_state_99() {                                     
     191; 281 | uint8_t final_dma_state;                                               
     192; 282 | // from state_12, state_21                                             
     193; 284 | // 2 reasons to terminate transfer                                     
     194; 285 | // - BUS timeout at curent address                                     
     195; 286 | // - last word transferred                                             
     196;----------------------------------------------------------------------
     197
     198;***************************************************************
     199;* FNAME: sm_dma_state_99               FR SIZE:  20           *
     200;*                                                             *
     201;* FUNCTION ENVIRONMENT                                        *
     202;*                                                             *
     203;* FUNCTION PROPERTIES                                         *
     204;*                            0 Auto, 20 SOE     *
     205;***************************************************************
     206
     207||sm_dma_state_99||:
     208;* --------------------------------------------------------------------------*
     209;* r4_0  assigned to $O$C1
     210$C$DW$22        .dwtag  DW_TAG_variable
     211        .dwattr $C$DW$22, DW_AT_name("$O$C1")
     212        .dwattr $C$DW$22, DW_AT_TI_symbol_name("$O$C1")
     213        .dwattr $C$DW$22, DW_AT_type(*$C$DW$T$6)
     214        .dwattr $C$DW$22, DW_AT_location[DW_OP_reg16]
     215
     216;* r4_0  assigned to $O$C2
     217$C$DW$23        .dwtag  DW_TAG_variable
     218        .dwattr $C$DW$23, DW_AT_name("$O$C2")
     219        .dwattr $C$DW$23, DW_AT_TI_symbol_name("$O$C2")
     220        .dwattr $C$DW$23, DW_AT_type(*$C$DW$T$6)
PRU Assembler Unix v2.3.1 Sun Mar 31 20:55:35 2019

Tools Copyright (c) 2012-2017 Texas Instruments Incorporated
pru1_statemachine_dma.asm                                            PAGE    5

     221        .dwattr $C$DW$23, DW_AT_location[DW_OP_reg16]
     222
     223;* r4_0  assigned to $O$C3
     224$C$DW$24        .dwtag  DW_TAG_variable
     225        .dwattr $C$DW$24, DW_AT_name("$O$C3")
     226        .dwattr $C$DW$24, DW_AT_TI_symbol_name("$O$C3")
     227        .dwattr $C$DW$24, DW_AT_type(*$C$DW$T$6)
     228        .dwattr $C$DW$24, DW_AT_location[DW_OP_reg16]
     229
     230;* r4_0  assigned to $O$C4
     231$C$DW$25        .dwtag  DW_TAG_variable
     232        .dwattr $C$DW$25, DW_AT_name("$O$C4")
     233        .dwattr $C$DW$25, DW_AT_TI_symbol_name("$O$C4")
     234        .dwattr $C$DW$25, DW_AT_type(*$C$DW$T$6)
     235        .dwattr $C$DW$25, DW_AT_location[DW_OP_reg16]
     236
     237;* r6_0  assigned to $O$K2
     238$C$DW$26        .dwtag  DW_TAG_variable
     239        .dwattr $C$DW$26, DW_AT_name("$O$K2")
     240        .dwattr $C$DW$26, DW_AT_TI_symbol_name("$O$K2")
     241        .dwattr $C$DW$26, DW_AT_type(*$C$DW$T$138)
     242        .dwattr $C$DW$26, DW_AT_location[DW_OP_reg24]
     243
     244;* r5_0  assigned to $O$K34
     245$C$DW$27        .dwtag  DW_TAG_variable
     246        .dwattr $C$DW$27, DW_AT_name("$O$K34")
     247        .dwattr $C$DW$27, DW_AT_TI_symbol_name("$O$K34")
     248        .dwattr $C$DW$27, DW_AT_type(*$C$DW$T$159)
     249        .dwattr $C$DW$27, DW_AT_location[DW_OP_reg20]
     250
     251;* r0_0  assigned to $O$v1
     252$C$DW$28        .dwtag  DW_TAG_variable
     253        .dwattr $C$DW$28, DW_AT_name("$O$v1")
     254        .dwattr $C$DW$28, DW_AT_TI_symbol_name("$O$v1")
     255        .dwattr $C$DW$28, DW_AT_type(*$C$DW$T$10)
     256        .dwattr $C$DW$28, DW_AT_location[DW_OP_reg0]
     257
     258;* r4_1  assigned to final_dma_state
     259$C$DW$29        .dwtag  DW_TAG_variable
     260        .dwattr $C$DW$29, DW_AT_name("final_dma_state")
     261        .dwattr $C$DW$29, DW_AT_TI_symbol_name("final_dma_state")
     262        .dwattr $C$DW$29, DW_AT_type(*$C$DW$T$22)
     263        .dwattr $C$DW$29, DW_AT_location[DW_OP_reg17]
     264
     265;* r4_0  assigned to _tmpval
     266$C$DW$30        .dwtag  DW_TAG_variable
     267        .dwattr $C$DW$30, DW_AT_name("_tmpval")
     268        .dwattr $C$DW$30, DW_AT_TI_symbol_name("_tmpval")
     269        .dwattr $C$DW$30, DW_AT_type(*$C$DW$T$22)
     270        .dwattr $C$DW$30, DW_AT_location[DW_OP_reg16]
     271
     272;* r4_0  assigned to _tmpval
     273$C$DW$31        .dwtag  DW_TAG_variable
     274        .dwattr $C$DW$31, DW_AT_name("_tmpval")
     275        .dwattr $C$DW$31, DW_AT_TI_symbol_name("_tmpval")
PRU Assembler Unix v2.3.1 Sun Mar 31 20:55:35 2019

Tools Copyright (c) 2012-2017 Texas Instruments Incorporated
pru1_statemachine_dma.asm                                            PAGE    6

     276        .dwattr $C$DW$31, DW_AT_type(*$C$DW$T$22)
     277        .dwattr $C$DW$31, DW_AT_location[DW_OP_reg16]
     278
     279;* r4_0  assigned to _tmpval
     280$C$DW$32        .dwtag  DW_TAG_variable
     281        .dwattr $C$DW$32, DW_AT_name("_tmpval")
     282        .dwattr $C$DW$32, DW_AT_TI_symbol_name("_tmpval")
     283        .dwattr $C$DW$32, DW_AT_type(*$C$DW$T$22)
     284        .dwattr $C$DW$32, DW_AT_location[DW_OP_reg16]
     285
     286;* r4_0  assigned to _tmpval
     287$C$DW$33        .dwtag  DW_TAG_variable
     288        .dwattr $C$DW$33, DW_AT_name("_tmpval")
     289        .dwattr $C$DW$33, DW_AT_TI_symbol_name("_tmpval")
     290        .dwattr $C$DW$33, DW_AT_type(*$C$DW$T$22)
     291        .dwattr $C$DW$33, DW_AT_location[DW_OP_reg16]
     292
     293        .dwcfi  cfa_offset, 0
     294;*** 287        -----------------------    if ( (*(K$2 = &sm_dma)).state_timeout ) goto g7;
     295 00000000 0000000514E2E2          SUB       r2, r2, 0x14          ; [ALU_PRU] 
     296        .dwcfi  cfa_offset, 20
     297 00000004 000000E10022C3          SBBO      &r3.b2, r2, 0, 4      ; [ALU_PRU] 
     298        .dwcfi  save_reg_to_mem, 14, -20
     299        .dwcfi  save_reg_to_mem, 15, -19
     300        .dwcfi  save_reg_to_mem, 16, -18
     301        .dwcfi  save_reg_to_mem, 17, -17
     302 00000008 000000E104E285          SBBO      &r5.b0, r2, 4, 16     ; [ALU_PRU] 
     303        .dwcfi  save_reg_to_mem, 20, -16
     304        .dwcfi  save_reg_to_mem, 21, -15
     305        .dwcfi  save_reg_to_mem, 22, -14
     306        .dwcfi  save_reg_to_mem, 23, -13
     307        .dwcfi  save_reg_to_mem, 24, -12
     308        .dwcfi  save_reg_to_mem, 25, -11
     309        .dwcfi  save_reg_to_mem, 26, -10
     310        .dwcfi  save_reg_to_mem, 27, -9
     311        .dwcfi  save_reg_to_mem, 28, -8
     312        .dwcfi  save_reg_to_mem, 29, -7
     313        .dwcfi  save_reg_to_mem, 30, -6
     314        .dwcfi  save_reg_to_mem, 31, -5
     315        .dwcfi  save_reg_to_mem, 32, -4
     316        .dwcfi  save_reg_to_mem, 33, -3
     317        .dwcfi  save_reg_to_mem, 34, -2
     318        .dwcfi  save_reg_to_mem, 35, -1
     319        .dwpsn  file "pru1_statemachine_dma.c",line 287,column 2,is_stmt,isa 0
     320;----------------------------------------------------------------------
     321; 287 | if (sm_dma.state_timeout) {                                            
     322; 288 |         final_dma_state = DMA_STATE_TIMEOUTSTOP;                       
     323; 289 |         // deassert SACK after timeout, independent of remaining word c
     324;     | ount                                                                   
     325; 290 |         buslatches_setbits(1, BIT(5), 0); // deassert SACK = latch[1],
     326;     | bit 5                                                                  
     327; 291 | } else {                                                               
     328;----------------------------------------------------------------------
     329 0000000c 000000240000E6!         LDI       r6, ||sm_dma||        ; [ALU_PRU] |287| $O$K2,sm_dma
     330 00000010 000000F1020600          LBBO      &r0.b0, r6, 2, 1      ; [ALU_PRU] |287| $O$K2
PRU Assembler Unix v2.3.1 Sun Mar 31 20:55:35 2019

Tools Copyright (c) 2012-2017 Texas Instruments Incorporated
pru1_statemachine_dma.asm                                            PAGE    7

     331 00000014 0000006900002D          QBNE      ||$C$L3||, r0.b0, 0x00 ; [ALU_PRU] |287| 
     332;* --------------------------------------------------------------------------*
     333;*** 292        -----------------------    ++(*K$2).dataptr;
     334;*** 293        -----------------------    v$1 = (unsigned short)((*K$2).cur_wordsleft-1);
     335;*** 293        -----------------------    (*K$2).cur_wordsleft = v$1;
     336;*** 294        -----------------------    if ( !v$1 ) goto g6;
     337        .dwpsn  file "pru1_statemachine_dma.c",line 292,column 3,is_stmt,isa 0
     338;----------------------------------------------------------------------
     339; 292 | sm_dma.dataptr++;  // point to next word in buffer                     
     340;----------------------------------------------------------------------
     341 00000018 000000F1032680          LBBO      &r0, r6, 3, 4         ; [ALU_PRU] |292| $O$K2
     342 0000001c 0000000102E0E0          ADD       r0, r0, 0x02          ; [ALU_PRU] |292| 
     343 00000020 000000E1032680          SBBO      &r0, r6, 3, 4         ; [ALU_PRU] |292| $O$K2
     344        .dwpsn  file "pru1_statemachine_dma.c",line 293,column 3,is_stmt,isa 0
     345;----------------------------------------------------------------------
     346; 293 | sm_dma.cur_wordsleft--;                                                
     347;----------------------------------------------------------------------
     348 00000024 000000F1070680          LBBO      &r0.w0, r6, 7, 2      ; [ALU_PRU] |293| $O$K2
     349 00000028 00000005018080          SUB       r0.w0, r0.w0, 0x01    ; [ALU_PRU] |293| 
     350 0000002c 000000108080E0          MOV       r0, r0.w0             ; [ALU_PRU] |293| $O$v1
     351 00000030 000000E1070680          SBBO      &r0.w0, r6, 7, 2      ; [ALU_PRU] |293| $O$K2,$O$v1
     352        .dwpsn  file "pru1_statemachine_dma.c",line 294,column 3,is_stmt,isa 0
     353;----------------------------------------------------------------------
     354; 294 | if (sm_dma.cur_wordsleft == 0)                                         
     355; 295 |         final_dma_state = DMA_STATE_READY; // last word: stop          
     356;----------------------------------------------------------------------
     357 00000034 0000005100E020          QBEQ      ||$C$L2||, r0, 0x00   ; [ALU_PRU] |294| $O$v1
     358;* --------------------------------------------------------------------------*
     359;*** 296        -----------------------    __R30 = 3840u;
     360;*** 296        -----------------------    __delay_cycles(10u);
     361;*** 296        -----------------------    if ( __R31&0x8 ) goto g5;
     362        .dwpsn  file "pru1_statemachine_dma.c",line 296,column 8,is_stmt,isa 0
     363;----------------------------------------------------------------------
     364; 296 | else if (buslatches_get(7) & BIT(3)) { // INIT stops transaction: latch
     365;     | [7], bit 3                                                             
     366; 297 |         // only bus master (=we!) can issue INIT, so this should never
     367;     | be reached                                                             
     368; 298 |         final_dma_state = DMA_STATE_INITSTOP;                          
     369; 299 |         // deassert SACK after INIT, independent of remaining word coun
     370;     | t                                                                      
     371; 300 |         buslatches_setbits(1, BIT(5), 0); // deassert SACK = latch[1],
     372;     | bit 5                                                                  
     373; 301 | } else                                                                 
     374; 302 |         final_dma_state = DMA_STATE_RUNNING; // more words:  continue  
     375;----------------------------------------------------------------------
     376 00000038 000000240F00FE          LDI       r30, 0x0f00           ; [ALU_PRU] |296| 
     377        .newblock
     378 0000003c 000480240000C0          LDI32    r0, 4
         00000043 00000000004024 
     379 00000044 0000000501E0E0  $1:     SUB      r0, r0, 1
     380 00000048 0000006F00E0FF          QBNE     $1, r0, 0             ; [ALU_PRU] |296| 
     381 0000004c 000000D103FF0A          QBBS      ||$C$L1||, r31, 0x03  ; [ALU_PRU] |296| 
     382;* --------------------------------------------------------------------------*
     383;*** 305        -----------------------    (*K$2).state = &sm_dma_state_1;
     384;*** 309        -----------------------    mailbox.$P$T1.dma.cur_addr += 2u;
PRU Assembler Unix v2.3.1 Sun Mar 31 20:55:35 2019

Tools Copyright (c) 2012-2017 Texas Instruments Incorporated
pru1_statemachine_dma.asm                                            PAGE    8

     385;*** 310        -----------------------    return 0;
     386        .dwpsn  file "pru1_statemachine_dma.c",line 305,column 2,is_stmt,isa 0
     387;----------------------------------------------------------------------
     388; 305 | sm_dma.state = &sm_dma_state_1; // in any case, reloop                 
     389; 307 | if (final_dma_state == DMA_STATE_RUNNING) {                            
     390; 308 |         // dataptr and wordsleft already incremented                   
     391; 309 |         mailbox.dma.cur_addr += 2; // signal progress to ARM           
     392;----------------------------------------------------------------------
     393 00000050 00000024000080!         LDI       r0.w0, $CODE(||sm_dma_state_1||) ; [ALU_PRU] |305| sm_dma_state_1
     394 00000054 000000E1000680          SBBO      &r0.w0, r6, 0, 2      ; [ALU_PRU] |305| $O$K2
     395        .dwpsn  file "pru1_statemachine_dma.c",line 310,column 3,is_stmt,isa 0
     396;----------------------------------------------------------------------
     397; 310 | return 0;                                                              
     398;----------------------------------------------------------------------
     399 00000058 0000002400000E          LDI       r14.b0, 0x00          ; [ALU_PRU] |310| 
     400        .dwpsn  file "pru1_statemachine_dma.c",line 309,column 3,is_stmt,isa 0
     401 0000005c 001C80240000C0!         LDI32     r0, ||mailbox||+28    ; [ALU_PRU] |309| mailbox
         00000063 00000021004024 
     402 00000064 000000F1002081          LBBO      &r1, r0, 0, 4         ; [ALU_PRU] |309| 
     403 00000068 0000000102E1E1          ADD       r1, r1, 0x02          ; [ALU_PRU] |309| 
     404 0000006c 000000E1002081          SBBO      &r1, r0, 0, 4         ; [ALU_PRU] |309| 
     405        .dwpsn  file "pru1_statemachine_dma.c",line 310,column 3,is_stmt,isa 0
     406;----------------------------------------------------------------------
     407; 311 | } else {                                                               
     408; 312 |         // remove addr and control from bus                            
     409;----------------------------------------------------------------------
     410 00000070 00000021000000!         JMP       ||$C$L5||             ; [ALU_PRU] |310| 
     411;* --------------------------------------------------------------------------*
     412 00000074                 ||$C$L1||:    
     413;***    -----------------------g5:
     414;*** 300        -----------------------    _tmpval = C$4 = (unsigned char)(*(K$34 = &buslatches+1)&0xd
     415;*** 300        -----------------------    buslatches_pru0_dataout((unsigned)C$4);
     416;*** 300        -----------------------    __R30 = 256u;
     417;*** 300        -----------------------    *K$34 = _tmpval;
     418;*** 300        -----------------------    __delay_cycles(4u);
     419;*** 300        -----------------------    __R30 = 2304u;
     420;*** 305        -----------------------    (*K$2).state = &sm_dma_state_1;
     421;*** 298        -----------------------    final_dma_state = 4u;
     422;*** 307        -----------------------    goto g8;
     423        .dwpsn  file "pru1_statemachine_dma.c",line 300,column 4,is_stmt,isa 0
     424 00000074 000000240001E5!         LDI       r5, ||buslatches||+1  ; [ALU_PRU] |300| $O$K34,buslatches
     425 00000078 000000F1000500          LBBO      &r0.b0, r5, 0, 1      ; [ALU_PRU] |300| $O$K34
     426 0000007c 00000011DF0004          AND       r4.b0, r0.b0, 0xdf    ; [ALU_PRU] |300| $O$C4
     427 00000080 000000100404EE          MOV       r14, r4.b0            ; [ALU_PRU] |300| $O$C4
     428$C$DW$34        .dwtag  DW_TAG_TI_branch
     429        .dwattr $C$DW$34, DW_AT_low_pc(0x00)
     430        .dwattr $C$DW$34, DW_AT_name("buslatches_pru0_dataout")
     431        .dwattr $C$DW$34, DW_AT_TI_call
     432
     433 00000084 000000230000C3!         JAL       r3.w2, ||buslatches_pru0_dataout|| ; [ALU_PRU] |300| buslatches_pru0_dataout
     434 00000088 000000240100FE          LDI       r30, 0x0100           ; [ALU_PRU] |300| 
     435 0000008c 000000E1000504          SBBO      &r4.b0, r5, 0, 1      ; [ALU_PRU] |300| $O$K34,_tmpval
     436        .newblock
     437 00000090 000187240000C7          LDI32    r7, 1
         00000097 00000000004024 
PRU Assembler Unix v2.3.1 Sun Mar 31 20:55:35 2019

Tools Copyright (c) 2012-2017 Texas Instruments Incorporated
pru1_statemachine_dma.asm                                            PAGE    9

     438 00000098 0000000501E7E7  $1:     SUB      r7, r7, 1
     439 0000009c 0000006F00E7FF          QBNE     $1, r7, 0             ; [ALU_PRU] |300| 
     440        .dwpsn  file "pru1_statemachine_dma.c",line 298,column 4,is_stmt,isa 0
     441 000000a0 00000024000424          LDI       r4.b1, 0x04           ; [ALU_PRU] |298| final_dma_state
     442        .dwpsn  file "pru1_statemachine_dma.c",line 305,column 2,is_stmt,isa 0
     443 000000a4 00000024000080!         LDI       r0.w0, $CODE(||sm_dma_state_1||) ; [ALU_PRU] |305| sm_dma_state_1
     444        .dwpsn  file "pru1_statemachine_dma.c",line 300,column 4,is_stmt,isa 0
     445 000000a8 000000240900FE          LDI       r30, 0x0900           ; [ALU_PRU] |300| 
     446        .dwpsn  file "pru1_statemachine_dma.c",line 305,column 2,is_stmt,isa 0
     447 000000ac 000000E1000680          SBBO      &r0.w0, r6, 0, 2      ; [ALU_PRU] |305| $O$K2
     448        .dwpsn  file "pru1_statemachine_dma.c",line 307,column 2,is_stmt,isa 0
     449 000000b0 00000021000000!         JMP       ||$C$L4||             ; [ALU_PRU] |307| 
     450;* --------------------------------------------------------------------------*
     451 000000b4                 ||$C$L2||:    
     452;***    -----------------------g6:
     453;*** 305        -----------------------    (*K$2).state = &sm_dma_state_1;
     454;***    -----------------------    K$34 = &buslatches+1;
     455;*** 295        -----------------------    final_dma_state = 0u;
     456;*** 307        -----------------------    goto g8;
     457        .dwpsn  file "pru1_statemachine_dma.c",line 305,column 2,is_stmt,isa 0
     458 000000b4 00000024000080!         LDI       r0.w0, $CODE(||sm_dma_state_1||) ; [ALU_PRU] |305| sm_dma_state_1
     459 000000b8 000000240001E5!         LDI       r5, ||buslatches||+1  ; [ALU_PRU] $O$K34,buslatches
     460        .dwpsn  file "pru1_statemachine_dma.c",line 295,column 4,is_stmt,isa 0
     461 000000bc 00000024000024          LDI       r4.b1, 0x00           ; [ALU_PRU] |295| final_dma_state
     462        .dwpsn  file "pru1_statemachine_dma.c",line 305,column 2,is_stmt,isa 0
     463 000000c0 000000E1000680          SBBO      &r0.w0, r6, 0, 2      ; [ALU_PRU] |305| $O$K2
     464        .dwpsn  file "pru1_statemachine_dma.c",line 307,column 2,is_stmt,isa 0
     465 000000c4 00000021000000!         JMP       ||$C$L4||             ; [ALU_PRU] |307| 
     466;* --------------------------------------------------------------------------*
     467 000000c8                 ||$C$L3||:    
     468;***    -----------------------g7:
     469;*** 290        -----------------------    _tmpval = C$3 = (unsigned char)(*(K$34 = &buslatches+1)&0xd
     470;*** 290        -----------------------    buslatches_pru0_dataout((unsigned)C$3);
     471;*** 290        -----------------------    __R30 = 256u;
     472;*** 290        -----------------------    *K$34 = _tmpval;
     473;*** 290        -----------------------    __delay_cycles(4u);
     474;*** 290        -----------------------    __R30 = 2304u;
     475;*** 305        -----------------------    (*K$2).state = &sm_dma_state_1;
     476;*** 288        -----------------------    final_dma_state = 3u;
     477        .dwpsn  file "pru1_statemachine_dma.c",line 290,column 3,is_stmt,isa 0
     478 000000c8 000000240001E5!         LDI       r5, ||buslatches||+1  ; [ALU_PRU] |290| $O$K34,buslatches
     479 000000cc 000000F1000500          LBBO      &r0.b0, r5, 0, 1      ; [ALU_PRU] |290| $O$K34
     480 000000d0 00000011DF0004          AND       r4.b0, r0.b0, 0xdf    ; [ALU_PRU] |290| $O$C3
     481 000000d4 000000100404EE          MOV       r14, r4.b0            ; [ALU_PRU] |290| $O$C3
     482$C$DW$35        .dwtag  DW_TAG_TI_branch
     483        .dwattr $C$DW$35, DW_AT_low_pc(0x00)
     484        .dwattr $C$DW$35, DW_AT_name("buslatches_pru0_dataout")
     485        .dwattr $C$DW$35, DW_AT_TI_call
     486
     487 000000d8 000000230000C3!         JAL       r3.w2, ||buslatches_pru0_dataout|| ; [ALU_PRU] |290| buslatches_pru0_dataout
     488 000000dc 000000240100FE          LDI       r30, 0x0100           ; [ALU_PRU] |290| 
     489 000000e0 000000E1000504          SBBO      &r4.b0, r5, 0, 1      ; [ALU_PRU] |290| $O$K34,_tmpval
     490        .newblock
     491 000000e4 000187240000C7          LDI32    r7, 1
         000000eb 00000000004024 
PRU Assembler Unix v2.3.1 Sun Mar 31 20:55:35 2019

Tools Copyright (c) 2012-2017 Texas Instruments Incorporated
pru1_statemachine_dma.asm                                            PAGE   10

     492 000000ec 0000000501E7E7  $1:     SUB      r7, r7, 1
     493 000000f0 0000006F00E7FF          QBNE     $1, r7, 0             ; [ALU_PRU] |290| 
     494        .dwpsn  file "pru1_statemachine_dma.c",line 288,column 3,is_stmt,isa 0
     495 000000f4 00000024000324          LDI       r4.b1, 0x03           ; [ALU_PRU] |288| final_dma_state
     496        .dwpsn  file "pru1_statemachine_dma.c",line 305,column 2,is_stmt,isa 0
     497 000000f8 00000024000080!         LDI       r0.w0, $CODE(||sm_dma_state_1||) ; [ALU_PRU] |305| sm_dma_state_1
     498        .dwpsn  file "pru1_statemachine_dma.c",line 290,column 3,is_stmt,isa 0
     499 000000fc 000000240900FE          LDI       r30, 0x0900           ; [ALU_PRU] |290| 
     500        .dwpsn  file "pru1_statemachine_dma.c",line 305,column 2,is_stmt,isa 0
     501 00000100 000000E1000680          SBBO      &r0.w0, r6, 0, 2      ; [ALU_PRU] |305| $O$K2
     502;* --------------------------------------------------------------------------*
     503 00000104                 ||$C$L4||:    
     504;***    -----------------------g8:
     505;*** 313        -----------------------    buslatches_pru0_dataout(0u);
     506;*** 313        -----------------------    __R30 = 512u;
     507;*** 313        -----------------------    __delay_cycles(6u);
     508;*** 313        -----------------------    __R30 = 2560u;
     509;*** 314        -----------------------    buslatches_pru0_dataout(0u);
     510;*** 314        -----------------------    __R30 = 768u;
     511;*** 314        -----------------------    __delay_cycles(6u);
     512;*** 314        -----------------------    __R30 = 2816u;
     513;*** 315        -----------------------    _tmpval = C$2 = (unsigned char)(K$34[3]&0xc0);
     514;*** 315        -----------------------    buslatches_pru0_dataout((unsigned)C$2);
     515;*** 315        -----------------------    __R30 = 1024u;
     516;*** 315        -----------------------    K$34[3] = _tmpval;
     517;*** 315        -----------------------    __delay_cycles(4u);
     518;*** 315        -----------------------    __R30 = 3072u;
     519;*** 317        -----------------------    _tmpval = C$1 = (unsigned char)(*K$34&0xbf);
     520;*** 317        -----------------------    buslatches_pru0_dataout((unsigned)C$1);
     521;*** 317        -----------------------    __R30 = 256u;
     522;*** 317        -----------------------    *K$34 = _tmpval;
     523;*** 317        -----------------------    __delay_cycles(4u);
     524;*** 317        -----------------------    __R30 = 2304u;
     525;*** 319        -----------------------    sm_arb.state = &sm_arb_state_idle;
     526;*** 320        -----------------------    mailbox.$P$T1.dma.cur_status = final_dma_state;
     527;*** 321        -----------------------    return 1;
     528        .dwpsn  file "pru1_statemachine_dma.c",line 313,column 3,is_stmt,isa 0
     529;----------------------------------------------------------------------
     530; 313 | buslatches_setbyte(2, 0);                                              
     531;----------------------------------------------------------------------
     532 00000104 0000002EFF818E          ZERO      &r14, 4               ; [ALU_PRU] |313| 
     533$C$DW$36        .dwtag  DW_TAG_TI_branch
     534        .dwattr $C$DW$36, DW_AT_low_pc(0x00)
     535        .dwattr $C$DW$36, DW_AT_name("buslatches_pru0_dataout")
     536        .dwattr $C$DW$36, DW_AT_TI_call
     537
     538 00000108 000000230000C3!         JAL       r3.w2, ||buslatches_pru0_dataout|| ; [ALU_PRU] |313| buslatches_pru0_dataout
     539 0000010c 000000240200FE          LDI       r30, 0x0200           ; [ALU_PRU] |313| 
     540        .newblock
     541 00000110 000288240000C8          LDI32    r8, 2
         00000117 00000000004024 
     542 00000118 0000000501E8E8  $1:     SUB      r8, r8, 1
     543 0000011c 0000006F00E8FF          QBNE     $1, r8, 0             ; [ALU_PRU] |313| 
     544        .dwpsn  file "pru1_statemachine_dma.c",line 314,column 3,is_stmt,isa 0
     545;----------------------------------------------------------------------
PRU Assembler Unix v2.3.1 Sun Mar 31 20:55:35 2019

Tools Copyright (c) 2012-2017 Texas Instruments Incorporated
pru1_statemachine_dma.asm                                            PAGE   11

     546; 314 | buslatches_setbyte(3, 0);                                              
     547;----------------------------------------------------------------------
     548 00000120 0000002EFF818E          ZERO      &r14, 4               ; [ALU_PRU] |314| 
     549        .dwpsn  file "pru1_statemachine_dma.c",line 313,column 3,is_stmt,isa 0
     550 00000124 000000240A00FE          LDI       r30, 0x0a00           ; [ALU_PRU] |313| 
     551        .dwpsn  file "pru1_statemachine_dma.c",line 314,column 3,is_stmt,isa 0
     552$C$DW$37        .dwtag  DW_TAG_TI_branch
     553        .dwattr $C$DW$37, DW_AT_low_pc(0x00)
     554        .dwattr $C$DW$37, DW_AT_name("buslatches_pru0_dataout")
     555        .dwattr $C$DW$37, DW_AT_TI_call
     556
     557 00000128 000000230000C3!         JAL       r3.w2, ||buslatches_pru0_dataout|| ; [ALU_PRU] |314| buslatches_pru0_dataout
     558 0000012c 000000240300FE          LDI       r30, 0x0300           ; [ALU_PRU] |314| 
     559        .newblock
     560 00000130 000287240000C7          LDI32    r7, 2
         00000137 00000000004024 
     561 00000138 0000000501E7E7  $1:     SUB      r7, r7, 1
     562 0000013c 0000006F00E7FF          QBNE     $1, r7, 0             ; [ALU_PRU] |314| 
     563        .dwpsn  file "pru1_statemachine_dma.c",line 315,column 3,is_stmt,isa 0
     564;----------------------------------------------------------------------
     565; 315 | buslatches_setbits(4, 0x3f, 0);                                        
     566;----------------------------------------------------------------------
     567 00000140 000000F1030500          LBBO      &r0.b0, r5, 3, 1      ; [ALU_PRU] |315| $O$K34
     568 00000144 00000011C00004          AND       r4.b0, r0.b0, 0xc0    ; [ALU_PRU] |315| $O$C2
     569        .dwpsn  file "pru1_statemachine_dma.c",line 314,column 3,is_stmt,isa 0
     570 00000148 000000240B00FE          LDI       r30, 0x0b00           ; [ALU_PRU] |314| 
     571        .dwpsn  file "pru1_statemachine_dma.c",line 315,column 3,is_stmt,isa 0
     572;----------------------------------------------------------------------
     573; 316 | // remove BBSY: latch[1], bit 6                                        
     574;----------------------------------------------------------------------
     575 0000014c 000000100404EE          MOV       r14, r4.b0            ; [ALU_PRU] |315| $O$C2
     576$C$DW$38        .dwtag  DW_TAG_TI_branch
     577        .dwattr $C$DW$38, DW_AT_low_pc(0x00)
     578        .dwattr $C$DW$38, DW_AT_name("buslatches_pru0_dataout")
     579        .dwattr $C$DW$38, DW_AT_TI_call
     580
     581 00000150 000000230000C3!         JAL       r3.w2, ||buslatches_pru0_dataout|| ; [ALU_PRU] |315| buslatches_pru0_dataout
     582 00000154 000000E1030504          SBBO      &r4.b0, r5, 3, 1      ; [ALU_PRU] |315| $O$K34,_tmpval
     583 00000158 000000240400FE          LDI       r30, 0x0400           ; [ALU_PRU] |315| 
     584        .newblock
     585 0000015c 000186240000C6          LDI32    r6, 1
         00000163 00000000004024 
     586 00000164 0000000501E6E6  $1:     SUB      r6, r6, 1
     587 00000168 0000006F00E6FF          QBNE     $1, r6, 0             ; [ALU_PRU] |315| 
     588        .dwpsn  file "pru1_statemachine_dma.c",line 317,column 3,is_stmt,isa 0
     589;----------------------------------------------------------------------
     590; 317 | buslatches_setbits(1, BIT(6), 0);                                      
     591;----------------------------------------------------------------------
     592 0000016c 000000F1000500          LBBO      &r0.b0, r5, 0, 1      ; [ALU_PRU] |317| $O$K34
     593        .dwpsn  file "pru1_statemachine_dma.c",line 315,column 3,is_stmt,isa 0
     594 00000170 000000240C00FE          LDI       r30, 0x0c00           ; [ALU_PRU] |315| 
     595        .dwpsn  file "pru1_statemachine_dma.c",line 317,column 3,is_stmt,isa 0
     596;----------------------------------------------------------------------
     597; 318 | // terminate arbitration state                                         
     598;----------------------------------------------------------------------
PRU Assembler Unix v2.3.1 Sun Mar 31 20:55:35 2019

Tools Copyright (c) 2012-2017 Texas Instruments Incorporated
pru1_statemachine_dma.asm                                            PAGE   12

     599 00000174 00000011BF0004          AND       r4.b0, r0.b0, 0xbf    ; [ALU_PRU] |317| $O$C1
     600 00000178 000000100404EE          MOV       r14, r4.b0            ; [ALU_PRU] |317| $O$C1
     601$C$DW$39        .dwtag  DW_TAG_TI_branch
     602        .dwattr $C$DW$39, DW_AT_low_pc(0x00)
     603        .dwattr $C$DW$39, DW_AT_name("buslatches_pru0_dataout")
     604        .dwattr $C$DW$39, DW_AT_TI_call
     605
     606 0000017c 000000230000C3!         JAL       r3.w2, ||buslatches_pru0_dataout|| ; [ALU_PRU] |317| buslatches_pru0_dataout
     607 00000180 000000E1000504          SBBO      &r4.b0, r5, 0, 1      ; [ALU_PRU] |317| $O$K34,_tmpval
     608 00000184 000000240100FE          LDI       r30, 0x0100           ; [ALU_PRU] |317| 
     609        .newblock
     610 00000188 000185240000C5          LDI32    r5, 1
         0000018f 00000000004024 
     611 00000190 0000000501E5E5  $1:     SUB      r5, r5, 1
     612 00000194 0000006F00E5FF          QBNE     $1, r5, 0             ; [ALU_PRU] |317| 
     613        .dwpsn  file "pru1_statemachine_dma.c",line 319,column 3,is_stmt,isa 0
     614;----------------------------------------------------------------------
     615; 319 | sm_arb.state = &sm_arb_state_idle;                                     
     616; 320 | mailbox.dma.cur_status = final_dma_state; // signal to ARM             
     617;----------------------------------------------------------------------
     618 00000198 00000024000081!         LDI       r1.w0, $CODE(||sm_arb_state_idle||) ; [ALU_PRU] |319| sm_arb_state_idle
     619        .dwpsn  file "pru1_statemachine_dma.c",line 321,column 3,is_stmt,isa 0
     620;----------------------------------------------------------------------
     621; 321 | return 1; // now stopped                                               
     622;----------------------------------------------------------------------
     623 0000019c 0000002400010E          LDI       r14.b0, 0x01          ; [ALU_PRU] |321| 
     624        .dwpsn  file "pru1_statemachine_dma.c",line 319,column 3,is_stmt,isa 0
     625 000001a0 000000240000E0!         LDI       r0, ||sm_arb||        ; [ALU_PRU] |319| sm_arb
     626        .dwpsn  file "pru1_statemachine_dma.c",line 317,column 3,is_stmt,isa 0
     627 000001a4 000000240900FE          LDI       r30, 0x0900           ; [ALU_PRU] |317| 
     628        .dwpsn  file "pru1_statemachine_dma.c",line 319,column 3,is_stmt,isa 0
     629 000001a8 000000E1000081          SBBO      &r1.w0, r0, 0, 2      ; [ALU_PRU] |319| 
     630        .dwpsn  file "pru1_statemachine_dma.c",line 320,column 3,is_stmt,isa 0
     631 000001ac 001880240000C0!         LDI32     r0, ||mailbox||+24    ; [ALU_PRU] |320| mailbox
         000001b3 00000021004024 
     632 000001b4 000000E1000024          SBBO      &r4.b1, r0, 0, 1      ; [ALU_PRU] |320| final_dma_state
     633;* --------------------------------------------------------------------------*
     634 000001b8                 ||$C$L5||:    
     635 000001b8 000000F10022C3          LBBO      &r3.b2, r2, 0, 4      ; [ALU_PRU] 
     636        .dwcfi  restore_reg, 14
     637        .dwcfi  restore_reg, 15
     638        .dwcfi  restore_reg, 16
     639        .dwcfi  restore_reg, 17
     640 000001bc 000000F104E285          LBBO      &r5.b0, r2, 4, 16     ; [ALU_PRU] 
     641        .dwcfi  restore_reg, 20
     642        .dwcfi  restore_reg, 21
     643        .dwcfi  restore_reg, 22
     644        .dwcfi  restore_reg, 23
     645        .dwcfi  restore_reg, 24
     646        .dwcfi  restore_reg, 25
     647        .dwcfi  restore_reg, 26
     648        .dwcfi  restore_reg, 27
     649        .dwcfi  restore_reg, 28
     650        .dwcfi  restore_reg, 29
     651        .dwcfi  restore_reg, 30
PRU Assembler Unix v2.3.1 Sun Mar 31 20:55:35 2019

Tools Copyright (c) 2012-2017 Texas Instruments Incorporated
pru1_statemachine_dma.asm                                            PAGE   13

     652        .dwcfi  restore_reg, 31
     653        .dwcfi  restore_reg, 32
     654        .dwcfi  restore_reg, 33
     655        .dwcfi  restore_reg, 34
     656        .dwcfi  restore_reg, 35
     657 000001c0 0000000114E2E2          ADD       r2, r2, 0x14          ; [ALU_PRU] 
     658        .dwcfi  cfa_offset, 0
     659$C$DW$40        .dwtag  DW_TAG_TI_branch
     660        .dwattr $C$DW$40, DW_AT_low_pc(0x00)
     661        .dwattr $C$DW$40, DW_AT_TI_return
     662
     663 000001c4 00000020C30000          JMP       r3.w2                 ; [ALU_PRU] 
     664        .dwattr $C$DW$21, DW_AT_TI_end_file("pru1_statemachine_dma.c")
     665        .dwattr $C$DW$21, DW_AT_TI_end_line(0x143)
     666        .dwattr $C$DW$21, DW_AT_TI_end_column(0x01)
     667        .dwendentry
     668        .dwendtag $C$DW$21
     669
     670 00000000                         .sect   ".text:sm_dma_state_21"
     671        .clink
     672
     673$C$DW$41        .dwtag  DW_TAG_subprogram
     674        .dwattr $C$DW$41, DW_AT_name("sm_dma_state_21")
     675        .dwattr $C$DW$41, DW_AT_low_pc(||sm_dma_state_21||)
     676        .dwattr $C$DW$41, DW_AT_high_pc(0x00)
     677        .dwattr $C$DW$41, DW_AT_TI_symbol_name("sm_dma_state_21")
     678        .dwattr $C$DW$41, DW_AT_type(*$C$DW$T$22)
     679        .dwattr $C$DW$41, DW_AT_TI_begin_file("pru1_statemachine_dma.c")
     680        .dwattr $C$DW$41, DW_AT_TI_begin_line(0x107)
     681        .dwattr $C$DW$41, DW_AT_TI_begin_column(0x10)
     682        .dwattr $C$DW$41, DW_AT_decl_file("pru1_statemachine_dma.c")
     683        .dwattr $C$DW$41, DW_AT_decl_line(0x107)
     684        .dwattr $C$DW$41, DW_AT_decl_column(0x10)
     685        .dwattr $C$DW$41, DW_AT_TI_max_frame_size(0x19)
     686        .dwpsn  file "pru1_statemachine_dma.c",line 263,column 34,is_stmt,address ||sm_dma_state_21||,
     687
     688        .dwfde $C$DW$CIE, ||sm_dma_state_21||
     689;----------------------------------------------------------------------
     690; 263 | static uint8_t sm_dma_state_21() {                                     
     691;----------------------------------------------------------------------
     692
     693;***************************************************************
     694;* FNAME: sm_dma_state_21               FR SIZE:  25           *
     695;*                                                             *
     696;* FUNCTION ENVIRONMENT                                        *
     697;*                                                             *
     698;* FUNCTION PROPERTIES                                         *
     699;*                            0 Auto, 25 SOE     *
     700;***************************************************************
     701
     702||sm_dma_state_21||:
     703;* --------------------------------------------------------------------------*
     704;* r6_0  assigned to $O$C1
     705$C$DW$42        .dwtag  DW_TAG_variable
     706        .dwattr $C$DW$42, DW_AT_name("$O$C1")
PRU Assembler Unix v2.3.1 Sun Mar 31 20:55:35 2019

Tools Copyright (c) 2012-2017 Texas Instruments Incorporated
pru1_statemachine_dma.asm                                            PAGE   14

     707        .dwattr $C$DW$42, DW_AT_TI_symbol_name("$O$C1")
     708        .dwattr $C$DW$42, DW_AT_type(*$C$DW$T$159)
     709        .dwattr $C$DW$42, DW_AT_location[DW_OP_reg24]
     710
     711;* r5_0  assigned to $O$C2
     712$C$DW$43        .dwtag  DW_TAG_variable
     713        .dwattr $C$DW$43, DW_AT_name("$O$C2")
     714        .dwattr $C$DW$43, DW_AT_TI_symbol_name("$O$C2")
     715        .dwattr $C$DW$43, DW_AT_type(*$C$DW$T$6)
     716        .dwattr $C$DW$43, DW_AT_location[DW_OP_reg20]
     717
     718;* r4_0  assigned to $O$C3
     719$C$DW$44        .dwtag  DW_TAG_variable
     720        .dwattr $C$DW$44, DW_AT_name("$O$C3")
     721        .dwattr $C$DW$44, DW_AT_TI_symbol_name("$O$C3")
     722        .dwattr $C$DW$44, DW_AT_type(*$C$DW$T$138)
     723        .dwattr $C$DW$44, DW_AT_location[DW_OP_reg16]
     724
     725;* r4_0  assigned to $O$K11
     726$C$DW$45        .dwtag  DW_TAG_variable
     727        .dwattr $C$DW$45, DW_AT_name("$O$K11")
     728        .dwattr $C$DW$45, DW_AT_TI_symbol_name("$O$K11")
     729        .dwattr $C$DW$45, DW_AT_type(*$C$DW$T$138)
     730        .dwattr $C$DW$45, DW_AT_location[DW_OP_reg16]
     731
     732;* r0_0  assigned to $O$v1
     733$C$DW$46        .dwtag  DW_TAG_variable
     734        .dwattr $C$DW$46, DW_AT_name("$O$v1")
     735        .dwattr $C$DW$46, DW_AT_TI_symbol_name("$O$v1")
     736        .dwattr $C$DW$46, DW_AT_type(*$C$DW$T$10)
     737        .dwattr $C$DW$46, DW_AT_location[DW_OP_reg0]
     738
     739;* r5_0  assigned to _tmpval
     740$C$DW$47        .dwtag  DW_TAG_variable
     741        .dwattr $C$DW$47, DW_AT_name("_tmpval")
     742        .dwattr $C$DW$47, DW_AT_TI_symbol_name("_tmpval")
     743        .dwattr $C$DW$47, DW_AT_type(*$C$DW$T$22)
     744        .dwattr $C$DW$47, DW_AT_location[DW_OP_reg20]
     745
     746        .dwcfi  cfa_offset, 0
     747;*** 264        -----------------------    v$1 = (*(volatile struct $$fake35 *)0x24000u).$P$T18.CYCLE 
     748 00000000 0000000519E2E2          SUB       r2, r2, 0x19          ; [ALU_PRU] 
     749        .dwcfi  cfa_offset, 25
     750        .dwpsn  file "pru1_statemachine_dma.c",line 264,column 2,is_stmt,isa 0
     751;----------------------------------------------------------------------
     752; 264 | sm_dma.state_timeout = TIMEOUT_REACHED; // SSYN timeout?               
     753; 265 | // SSYN = latch[4], bit 5                                              
     754;----------------------------------------------------------------------
     755 00000004 000000240000E1!         LDI       r1, ||timeout_target|| ; [ALU_PRU] |264| timeout_target
     756 00000008 400C8E240002CE          LDI32     r14, 0x0002400c       ; [ALU_PRU] |264| 
         0000000f 00000000004024 
     757 00000010 0000002EFF8180          ZERO      &r0, 4                ; [ALU_PRU] |264| 
     758 00000014 000000E1008243          SBBO      &r3.b2, r2, 0, 9      ; [ALU_PRU] 
     759        .dwcfi  save_reg_to_mem, 14, -25
     760        .dwcfi  save_reg_to_mem, 15, -24
PRU Assembler Unix v2.3.1 Sun Mar 31 20:55:35 2019

Tools Copyright (c) 2012-2017 Texas Instruments Incorporated
pru1_statemachine_dma.asm                                            PAGE   15

     761        .dwcfi  save_reg_to_mem, 16, -23
     762        .dwcfi  save_reg_to_mem, 17, -22
     763        .dwcfi  save_reg_to_mem, 18, -21
     764        .dwcfi  save_reg_to_mem, 19, -20
     765        .dwcfi  save_reg_to_mem, 20, -19
     766        .dwcfi  save_reg_to_mem, 21, -18
     767        .dwcfi  save_reg_to_mem, 22, -17
     768 00000018 000000E109E286          SBBO      &r6.b0, r2, 9, 16     ; [ALU_PRU] 
     769        .dwcfi  save_reg_to_mem, 24, -16
     770        .dwcfi  save_reg_to_mem, 25, -15
     771        .dwcfi  save_reg_to_mem, 26, -14
     772        .dwcfi  save_reg_to_mem, 27, -13
     773        .dwcfi  save_reg_to_mem, 28, -12
     774        .dwcfi  save_reg_to_mem, 29, -11
     775        .dwcfi  save_reg_to_mem, 30, -10
     776        .dwcfi  save_reg_to_mem, 31, -9
     777        .dwcfi  save_reg_to_mem, 32, -8
     778        .dwcfi  save_reg_to_mem, 33, -7
     779        .dwcfi  save_reg_to_mem, 34, -6
     780        .dwcfi  save_reg_to_mem, 35, -5
     781        .dwcfi  save_reg_to_mem, 36, -4
     782        .dwcfi  save_reg_to_mem, 37, -3
     783        .dwcfi  save_reg_to_mem, 38, -2
     784        .dwcfi  save_reg_to_mem, 39, -1
     785 0000001c 000000F1002181          LBBO      &r1, r1, 0, 4         ; [ALU_PRU] |264| 
     786 00000020 000000F1002E8E          LBBO      &r14, r14, 0, 4       ; [ALU_PRU] |264| 
     787 00000024 00000048EEE102          QBLT      ||$C$L6||, r1, r14    ; [ALU_PRU] |264| 
     788;* --------------------------------------------------------------------------*
     789 00000028 000000240001E0          LDI       r0, 0x0001            ; [ALU_PRU] |264| 
     790;* --------------------------------------------------------------------------*
     791 0000002c                 ||$C$L6||:    
     792;*** 264        -----------------------    (*(C$3 = &sm_dma)).state_timeout = v$1;
     793;*** 264        -----------------------    K$11 = C$3;
     794;*** 266        -----------------------    if ( v$1 ) goto g3;
     795 0000002c 000000240000E4!         LDI       r4, ||sm_dma||        ; [ALU_PRU] |264| $O$C3,sm_dma
     796 00000030 000000E1020400          SBBO      &r0.b0, r4, 2, 1      ; [ALU_PRU] |264| $O$C3,$O$v1
     797        .dwpsn  file "pru1_statemachine_dma.c",line 266,column 2,is_stmt,isa 0
     798;----------------------------------------------------------------------
     799; 266 | if (!sm_dma.state_timeout && !(buslatches_get(4) & BIT(5)))            
     800; 267 |         return 0; // no SSYN yet: wait                                 
     801; 269 | // SSYN set by slave (or timeout): negate MSYN, remove DATA from bus   
     802;----------------------------------------------------------------------
     803 00000034 0000006900E007          QBNE      ||$C$L7||, r0, 0x00   ; [ALU_PRU] |266| $O$v1
     804;* --------------------------------------------------------------------------*
     805;*** 266        -----------------------    __R30 = 3072u;
     806;*** 266        -----------------------    __delay_cycles(10u);
     807;*** 266        -----------------------    if ( !(__R31&0x20u) ) goto g4;
     808 00000038 000000240C00FE          LDI       r30, 0x0c00           ; [ALU_PRU] |266| 
     809        .newblock
     810 0000003c 000480240000C0          LDI32    r0, 4
         00000043 00000000004024 
     811 00000044 0000000501E0E0  $1:     SUB      r0, r0, 1
     812 00000048 0000006F00E0FF          QBNE     $1, r0, 0             ; [ALU_PRU] |266| 
     813 0000004c 000000C905FF22          QBBC      ||$C$L8||, r31, 0x05  ; [ALU_PRU] |266| 
     814;* --------------------------------------------------------------------------*
PRU Assembler Unix v2.3.1 Sun Mar 31 20:55:35 2019

Tools Copyright (c) 2012-2017 Texas Instruments Incorporated
pru1_statemachine_dma.asm                                            PAGE   16

     815 00000050                 ||$C$L7||:    
     816;***    -----------------------g3:
     817;*** 270        -----------------------    _tmpval = C$2 = (unsigned char)(*(C$1 = &buslatches+4)&0xef
     818;*** 270        -----------------------    buslatches_pru0_dataout((unsigned)C$2);
     819;*** 270        -----------------------    __R30 = 1024u;
     820;*** 270        -----------------------    *C$1 = _tmpval;
     821;*** 270        -----------------------    __delay_cycles(4u);
     822;*** 270        -----------------------    __R30 = 3072u;
     823;*** 271        -----------------------    buslatches_pru0_dataout(0u);
     824;*** 271        -----------------------    __R30 = 1280u;
     825;*** 271        -----------------------    __delay_cycles(6u);
     826;*** 271        -----------------------    __R30 = 3328u;
     827;*** 272        -----------------------    buslatches_pru0_dataout(0u);
     828;*** 272        -----------------------    __R30 = 1536u;
     829;*** 272        -----------------------    __delay_cycles(6u);
     830;*** 272        -----------------------    __R30 = 3584u;
     831;*** 274        -----------------------    __delay_cycles(7u);
     832;*** 275        -----------------------    (*K$11).state = &sm_dma_state_99;
     833        .dwpsn  file "pru1_statemachine_dma.c",line 270,column 2,is_stmt,isa 0
     834;----------------------------------------------------------------------
     835; 270 | buslatches_setbits(4, BIT(4), 0); // deassert MSYN                     
     836;----------------------------------------------------------------------
     837 00000050 000000240004E6!         LDI       r6, ||buslatches||+4  ; [ALU_PRU] |270| $O$C1,buslatches
     838 00000054 000000F1000600          LBBO      &r0.b0, r6, 0, 1      ; [ALU_PRU] |270| $O$C1
     839 00000058 00000011EF0005          AND       r5.b0, r0.b0, 0xef    ; [ALU_PRU] |270| $O$C2
     840 0000005c 000000100505EE          MOV       r14, r5.b0            ; [ALU_PRU] |270| $O$C2
     841$C$DW$48        .dwtag  DW_TAG_TI_branch
     842        .dwattr $C$DW$48, DW_AT_low_pc(0x00)
     843        .dwattr $C$DW$48, DW_AT_name("buslatches_pru0_dataout")
     844        .dwattr $C$DW$48, DW_AT_TI_call
     845
     846 00000060 000000230000C3!         JAL       r3.w2, ||buslatches_pru0_dataout|| ; [ALU_PRU] |270| buslatches_pru0_dataout
     847 00000064 000000240400FE          LDI       r30, 0x0400           ; [ALU_PRU] |270| 
     848 00000068 000000E1000605          SBBO      &r5.b0, r6, 0, 1      ; [ALU_PRU] |270| $O$C1,_tmpval
     849        .newblock
     850 0000006c 000189240000C9          LDI32    r9, 1
         00000073 00000000004024 
     851 00000074 0000000501E9E9  $1:     SUB      r9, r9, 1
     852 00000078 0000006F00E9FF          QBNE     $1, r9, 0             ; [ALU_PRU] |270| 
     853        .dwpsn  file "pru1_statemachine_dma.c",line 271,column 2,is_stmt,isa 0
     854;----------------------------------------------------------------------
     855; 271 | buslatches_setbyte(5, 0);                                              
     856;----------------------------------------------------------------------
     857 0000007c 0000002EFF818E          ZERO      &r14, 4               ; [ALU_PRU] |271| 
     858        .dwpsn  file "pru1_statemachine_dma.c",line 270,column 2,is_stmt,isa 0
     859 00000080 000000240C00FE          LDI       r30, 0x0c00           ; [ALU_PRU] |270| 
     860        .dwpsn  file "pru1_statemachine_dma.c",line 271,column 2,is_stmt,isa 0
     861$C$DW$49        .dwtag  DW_TAG_TI_branch
     862        .dwattr $C$DW$49, DW_AT_low_pc(0x00)
     863        .dwattr $C$DW$49, DW_AT_name("buslatches_pru0_dataout")
     864        .dwattr $C$DW$49, DW_AT_TI_call
     865
     866 00000084 000000230000C3!         JAL       r3.w2, ||buslatches_pru0_dataout|| ; [ALU_PRU] |271| buslatches_pru0_dataout
     867 00000088 000000240500FE          LDI       r30, 0x0500           ; [ALU_PRU] |271| 
     868        .newblock
PRU Assembler Unix v2.3.1 Sun Mar 31 20:55:35 2019

Tools Copyright (c) 2012-2017 Texas Instruments Incorporated
pru1_statemachine_dma.asm                                            PAGE   17

     869 0000008c 000288240000C8          LDI32    r8, 2
         00000093 00000000004024 
     870 00000094 0000000501E8E8  $1:     SUB      r8, r8, 1
     871 00000098 0000006F00E8FF          QBNE     $1, r8, 0             ; [ALU_PRU] |271| 
     872        .dwpsn  file "pru1_statemachine_dma.c",line 272,column 2,is_stmt,isa 0
     873;----------------------------------------------------------------------
     874; 272 | buslatches_setbyte(6, 0);                                              
     875;----------------------------------------------------------------------
     876 0000009c 0000002EFF818E          ZERO      &r14, 4               ; [ALU_PRU] |272| 
     877        .dwpsn  file "pru1_statemachine_dma.c",line 271,column 2,is_stmt,isa 0
     878 000000a0 000000240D00FE          LDI       r30, 0x0d00           ; [ALU_PRU] |271| 
     879        .dwpsn  file "pru1_statemachine_dma.c",line 272,column 2,is_stmt,isa 0
     880;----------------------------------------------------------------------
     881; 273 | // DATO: remove address,control, MSYN,SSYN from bus, 75ns after MSYN in
     882;     | active                                                                 
     883;----------------------------------------------------------------------
     884$C$DW$50        .dwtag  DW_TAG_TI_branch
     885        .dwattr $C$DW$50, DW_AT_low_pc(0x00)
     886        .dwattr $C$DW$50, DW_AT_name("buslatches_pru0_dataout")
     887        .dwattr $C$DW$50, DW_AT_TI_call
     888
     889 000000a4 000000230000C3!         JAL       r3.w2, ||buslatches_pru0_dataout|| ; [ALU_PRU] |272| buslatches_pru0_dataout
     890 000000a8 000000240600FE          LDI       r30, 0x0600           ; [ALU_PRU] |272| 
     891        .newblock
     892 000000ac 000287240000C7          LDI32    r7, 2
         000000b3 00000000004024 
     893 000000b4 0000000501E7E7  $1:     SUB      r7, r7, 1
     894 000000b8 0000006F00E7FF          QBNE     $1, r7, 0             ; [ALU_PRU] |272| 
     895 000000bc 000000240E00FE          LDI       r30, 0x0e00           ; [ALU_PRU] |272| 
     896        .dwpsn  file "pru1_statemachine_dma.c",line 274,column 2,is_stmt,isa 0
     897;----------------------------------------------------------------------
     898; 274 | __delay_cycles(NANOSECS(75) - 8); // assume 8 cycles for state change  
     899;----------------------------------------------------------------------
     900        .newblock
     901 000000c0 000000240003A5          LDI      r5.w1, 3
     902 000000c4 0000000501A5A5  $1:     SUB      r5.w1, r5.w1, 1
     903 000000c8 0000006F00A5FF          QBNE     $1, r5.w1, 0          ; [ALU_PRU] |274| 
     904        .dwpsn  file "pru1_statemachine_dma.c",line 275,column 2,is_stmt,isa 0
     905;----------------------------------------------------------------------
     906; 275 | sm_dma.state = &sm_dma_state_99;                                       
     907; 276 | return 0; // still running                                             
     908;----------------------------------------------------------------------
     909 000000cc 00000024000080!         LDI       r0.w0, $CODE(||sm_dma_state_99||) ; [ALU_PRU] |275| sm_dma_state_99
     910 000000d0 000000E1000480          SBBO      &r0.w0, r4, 0, 2      ; [ALU_PRU] |275| $O$K11
     911;* --------------------------------------------------------------------------*
     912 000000d4                 ||$C$L8||:    
     913;***    -----------------------g4:
     914;*** 267        -----------------------    return 0;
     915 000000d4 000000F1008243          LBBO      &r3.b2, r2, 0, 9      ; [ALU_PRU] 
     916        .dwcfi  restore_reg, 14
     917        .dwcfi  restore_reg, 15
     918        .dwcfi  restore_reg, 16
     919        .dwcfi  restore_reg, 17
     920        .dwcfi  restore_reg, 18
     921        .dwcfi  restore_reg, 19
PRU Assembler Unix v2.3.1 Sun Mar 31 20:55:35 2019

Tools Copyright (c) 2012-2017 Texas Instruments Incorporated
pru1_statemachine_dma.asm                                            PAGE   18

     922        .dwcfi  restore_reg, 20
     923        .dwcfi  restore_reg, 21
     924        .dwcfi  restore_reg, 22
     925 000000d8 000000F109E286          LBBO      &r6.b0, r2, 9, 16     ; [ALU_PRU] 
     926        .dwcfi  restore_reg, 24
     927        .dwcfi  restore_reg, 25
     928        .dwcfi  restore_reg, 26
     929        .dwcfi  restore_reg, 27
     930        .dwcfi  restore_reg, 28
     931        .dwcfi  restore_reg, 29
     932        .dwcfi  restore_reg, 30
     933        .dwcfi  restore_reg, 31
     934        .dwcfi  restore_reg, 32
     935        .dwcfi  restore_reg, 33
     936        .dwcfi  restore_reg, 34
     937        .dwcfi  restore_reg, 35
     938        .dwcfi  restore_reg, 36
     939        .dwcfi  restore_reg, 37
     940        .dwcfi  restore_reg, 38
     941        .dwcfi  restore_reg, 39
     942        .dwpsn  file "pru1_statemachine_dma.c",line 267,column 3,is_stmt,isa 0
     943 000000dc 0000002400000E          LDI       r14.b0, 0x00          ; [ALU_PRU] |267| 
     944 000000e0 0000000119E2E2          ADD       r2, r2, 0x19          ; [ALU_PRU] 
     945        .dwcfi  cfa_offset, 0
     946$C$DW$51        .dwtag  DW_TAG_TI_branch
     947        .dwattr $C$DW$51, DW_AT_low_pc(0x00)
     948        .dwattr $C$DW$51, DW_AT_TI_return
     949
     950 000000e4 00000020C30000          JMP       r3.w2                 ; [ALU_PRU] 
     951        .dwattr $C$DW$41, DW_AT_TI_end_file("pru1_statemachine_dma.c")
     952        .dwattr $C$DW$41, DW_AT_TI_end_line(0x115)
     953        .dwattr $C$DW$41, DW_AT_TI_end_column(0x01)
     954        .dwendentry
     955        .dwendtag $C$DW$41
     956
     957 00000000                         .sect   ".text:sm_dma_state_11"
     958        .clink
     959
     960$C$DW$52        .dwtag  DW_TAG_subprogram
     961        .dwattr $C$DW$52, DW_AT_name("sm_dma_state_11")
     962        .dwattr $C$DW$52, DW_AT_low_pc(||sm_dma_state_11||)
     963        .dwattr $C$DW$52, DW_AT_high_pc(0x00)
     964        .dwattr $C$DW$52, DW_AT_TI_symbol_name("sm_dma_state_11")
     965        .dwattr $C$DW$52, DW_AT_type(*$C$DW$T$22)
     966        .dwattr $C$DW$52, DW_AT_TI_begin_file("pru1_statemachine_dma.c")
     967        .dwattr $C$DW$52, DW_AT_TI_begin_line(0xee)
     968        .dwattr $C$DW$52, DW_AT_TI_begin_column(0x10)
     969        .dwattr $C$DW$52, DW_AT_decl_file("pru1_statemachine_dma.c")
     970        .dwattr $C$DW$52, DW_AT_decl_line(0xee)
     971        .dwattr $C$DW$52, DW_AT_decl_column(0x10)
     972        .dwattr $C$DW$52, DW_AT_TI_max_frame_size(0x11)
     973        .dwpsn  file "pru1_statemachine_dma.c",line 238,column 34,is_stmt,address ||sm_dma_state_11||,
     974
     975        .dwfde $C$DW$CIE, ||sm_dma_state_11||
     976;----------------------------------------------------------------------
PRU Assembler Unix v2.3.1 Sun Mar 31 20:55:35 2019

Tools Copyright (c) 2012-2017 Texas Instruments Incorporated
pru1_statemachine_dma.asm                                            PAGE   19

     977; 238 | static uint8_t sm_dma_state_11() {                                     
     978; 239 | uint16_t tmpval;                                                       
     979;----------------------------------------------------------------------
     980
     981;***************************************************************
     982;* FNAME: sm_dma_state_11               FR SIZE:  17           *
     983;*                                                             *
     984;* FUNCTION ENVIRONMENT                                        *
     985;*                                                             *
     986;* FUNCTION PROPERTIES                                         *
     987;*                            0 Auto, 17 SOE     *
     988;***************************************************************
     989
     990||sm_dma_state_11||:
     991;* --------------------------------------------------------------------------*
     992;* r7_0  assigned to $O$C1
     993$C$DW$53        .dwtag  DW_TAG_variable
     994        .dwattr $C$DW$53, DW_AT_name("$O$C1")
     995        .dwattr $C$DW$53, DW_AT_TI_symbol_name("$O$C1")
     996        .dwattr $C$DW$53, DW_AT_type(*$C$DW$T$159)
     997        .dwattr $C$DW$53, DW_AT_location[DW_OP_reg28]
     998
     999;* r5_0  assigned to $O$C2
    1000$C$DW$54        .dwtag  DW_TAG_variable
    1001        .dwattr $C$DW$54, DW_AT_name("$O$C2")
    1002        .dwattr $C$DW$54, DW_AT_TI_symbol_name("$O$C2")
    1003        .dwattr $C$DW$54, DW_AT_type(*$C$DW$T$6)
    1004        .dwattr $C$DW$54, DW_AT_location[DW_OP_reg20]
    1005
    1006;* r4_0  assigned to $O$C3
    1007$C$DW$55        .dwtag  DW_TAG_variable
    1008        .dwattr $C$DW$55, DW_AT_name("$O$C3")
    1009        .dwattr $C$DW$55, DW_AT_TI_symbol_name("$O$C3")
    1010        .dwattr $C$DW$55, DW_AT_type(*$C$DW$T$138)
    1011        .dwattr $C$DW$55, DW_AT_location[DW_OP_reg16]
    1012
    1013;* r4_0  assigned to $O$K11
    1014$C$DW$56        .dwtag  DW_TAG_variable
    1015        .dwattr $C$DW$56, DW_AT_name("$O$K11")
    1016        .dwattr $C$DW$56, DW_AT_TI_symbol_name("$O$K11")
    1017        .dwattr $C$DW$56, DW_AT_type(*$C$DW$T$138)
    1018        .dwattr $C$DW$56, DW_AT_location[DW_OP_reg16]
    1019
    1020;* r0_0  assigned to $O$v1
    1021$C$DW$57        .dwtag  DW_TAG_variable
    1022        .dwattr $C$DW$57, DW_AT_name("$O$v1")
    1023        .dwattr $C$DW$57, DW_AT_TI_symbol_name("$O$v1")
    1024        .dwattr $C$DW$57, DW_AT_type(*$C$DW$T$10)
    1025        .dwattr $C$DW$57, DW_AT_location[DW_OP_reg0]
    1026
    1027;* r14_0 assigned to tmpval
    1028$C$DW$58        .dwtag  DW_TAG_variable
    1029        .dwattr $C$DW$58, DW_AT_name("tmpval")
    1030        .dwattr $C$DW$58, DW_AT_TI_symbol_name("tmpval")
    1031        .dwattr $C$DW$58, DW_AT_type(*$C$DW$T$24)
PRU Assembler Unix v2.3.1 Sun Mar 31 20:55:35 2019

Tools Copyright (c) 2012-2017 Texas Instruments Incorporated
pru1_statemachine_dma.asm                                            PAGE   20

    1032        .dwattr $C$DW$58, DW_AT_location[DW_OP_regx 0x38]
    1033
    1034;* r5_0  assigned to _tmpval
    1035$C$DW$59        .dwtag  DW_TAG_variable
    1036        .dwattr $C$DW$59, DW_AT_name("_tmpval")
    1037        .dwattr $C$DW$59, DW_AT_TI_symbol_name("_tmpval")
    1038        .dwattr $C$DW$59, DW_AT_type(*$C$DW$T$22)
    1039        .dwattr $C$DW$59, DW_AT_location[DW_OP_reg20]
    1040
    1041        .dwcfi  cfa_offset, 0
    1042;*** 240        -----------------------    v$1 = (*(volatile struct $$fake35 *)0x24000u).$P$T18.CYCLE 
    1043 00000000 0000000511E2E2          SUB       r2, r2, 0x11          ; [ALU_PRU] 
    1044        .dwcfi  cfa_offset, 17
    1045        .dwpsn  file "pru1_statemachine_dma.c",line 240,column 2,is_stmt,isa 0
    1046;----------------------------------------------------------------------
    1047; 240 | sm_dma.state_timeout = TIMEOUT_REACHED;                                
    1048; 241 | // SSYN = latch[4], bit 5                                              
    1049;----------------------------------------------------------------------
    1050 00000004 000000240000E1!         LDI       r1, ||timeout_target|| ; [ALU_PRU] |240| timeout_target
    1051 00000008 400C8E240002CE          LDI32     r14, 0x0002400c       ; [ALU_PRU] |240| 
         0000000f 00000000004024 
    1052 00000010 0000002EFF8180          ZERO      &r0, 4                ; [ALU_PRU] |240| 
    1053 00000014 000000E1008243          SBBO      &r3.b2, r2, 0, 9      ; [ALU_PRU] 
    1054        .dwcfi  save_reg_to_mem, 14, -17
    1055        .dwcfi  save_reg_to_mem, 15, -16
    1056        .dwcfi  save_reg_to_mem, 16, -15
    1057        .dwcfi  save_reg_to_mem, 17, -14
    1058        .dwcfi  save_reg_to_mem, 18, -13
    1059        .dwcfi  save_reg_to_mem, 19, -12
    1060        .dwcfi  save_reg_to_mem, 20, -11
    1061        .dwcfi  save_reg_to_mem, 21, -10
    1062        .dwcfi  save_reg_to_mem, 22, -9
    1063 00000018 000000E1096286          SBBO      &r6.b0, r2, 9, 8      ; [ALU_PRU] 
    1064        .dwcfi  save_reg_to_mem, 24, -8
    1065        .dwcfi  save_reg_to_mem, 25, -7
    1066        .dwcfi  save_reg_to_mem, 26, -6
    1067        .dwcfi  save_reg_to_mem, 27, -5
    1068        .dwcfi  save_reg_to_mem, 28, -4
    1069        .dwcfi  save_reg_to_mem, 29, -3
    1070        .dwcfi  save_reg_to_mem, 30, -2
    1071        .dwcfi  save_reg_to_mem, 31, -1
    1072 0000001c 000000F1002181          LBBO      &r1, r1, 0, 4         ; [ALU_PRU] |240| 
    1073 00000020 000000F1002E8E          LBBO      &r14, r14, 0, 4       ; [ALU_PRU] |240| 
    1074 00000024 00000048EEE102          QBLT      ||$C$L9||, r1, r14    ; [ALU_PRU] |240| 
    1075;* --------------------------------------------------------------------------*
    1076 00000028 000000240001E0          LDI       r0, 0x0001            ; [ALU_PRU] |240| 
    1077;* --------------------------------------------------------------------------*
    1078 0000002c                 ||$C$L9||:    
    1079;*** 240        -----------------------    (*(C$3 = &sm_dma)).state_timeout = v$1;
    1080;*** 240        -----------------------    K$11 = C$3;
    1081;*** 242        -----------------------    if ( v$1 ) goto g3;
    1082 0000002c 000000240000E4!         LDI       r4, ||sm_dma||        ; [ALU_PRU] |240| $O$C3,sm_dma
    1083 00000030 000000E1020400          SBBO      &r0.b0, r4, 2, 1      ; [ALU_PRU] |240| $O$C3,$O$v1
    1084        .dwpsn  file "pru1_statemachine_dma.c",line 242,column 2,is_stmt,isa 0
    1085;----------------------------------------------------------------------
PRU Assembler Unix v2.3.1 Sun Mar 31 20:55:35 2019

Tools Copyright (c) 2012-2017 Texas Instruments Incorporated
pru1_statemachine_dma.asm                                            PAGE   21

    1086; 242 | if (!sm_dma.state_timeout && !(buslatches_get(4) & BIT(5)))            
    1087; 243 |         return 0; // no SSYN yet: wait                                 
    1088; 244 | // SSYN set by slave (or timeout). read data                           
    1089;----------------------------------------------------------------------
    1090 00000034 0000006900E007          QBNE      ||$C$L10||, r0, 0x00  ; [ALU_PRU] |242| $O$v1
    1091;* --------------------------------------------------------------------------*
    1092;*** 242        -----------------------    __R30 = 3072u;
    1093;*** 242        -----------------------    __delay_cycles(10u);
    1094;*** 242        -----------------------    if ( !(__R31&0x20u) ) goto g4;
    1095 00000038 000000240C00FE          LDI       r30, 0x0c00           ; [ALU_PRU] |242| 
    1096        .newblock
    1097 0000003c 000480240000C0          LDI32    r0, 4
         00000043 00000000004024 
    1098 00000044 0000000501E0E0  $1:     SUB      r0, r0, 1
    1099 00000048 0000006F00E0FF          QBNE     $1, r0, 0             ; [ALU_PRU] |242| 
    1100 0000004c 000000C905FF25          QBBC      ||$C$L11||, r31, 0x05 ; [ALU_PRU] |242| 
    1101;* --------------------------------------------------------------------------*
    1102 00000050                 ||$C$L10||:    
    1103;***    -----------------------g3:
    1104;*** 245        -----------------------    __delay_cycles(9u);
    1105;*** 248        -----------------------    __R30 = 3328u;
    1106;*** 248        -----------------------    __delay_cycles(10u);
    1107;*** 248        -----------------------    tmpval = __R31&0xffu;
    1108;*** 250        -----------------------    __R30 = 3584u;
    1109;*** 250        -----------------------    __delay_cycles(10u);
    1110;*** 250        -----------------------    tmpval |= __R31<<24u>>16;
    1111;*** 252        -----------------------    *(*K$11).dataptr = tmpval;
    1112;*** 255        -----------------------    _tmpval = C$2 = (unsigned char)(*(C$1 = &buslatches+4)&0xef
    1113;*** 255        -----------------------    buslatches_pru0_dataout((unsigned)C$2);
    1114;*** 255        -----------------------    __R30 = 1024u;
    1115;*** 255        -----------------------    *C$1 = _tmpval;
    1116;*** 255        -----------------------    __delay_cycles(4u);
    1117;*** 255        -----------------------    __R30 = 3072u;
    1118;*** 257        -----------------------    __delay_cycles(7u);
    1119;*** 258        -----------------------    (*K$11).state = &sm_dma_state_99;
    1120        .dwpsn  file "pru1_statemachine_dma.c",line 245,column 2,is_stmt,isa 0
    1121;----------------------------------------------------------------------
    1122; 245 | __delay_cycles(NANOSECS(75) - 6); // assume 2*3 cycles for buslatches_g
    1123;     | et                                                                     
    1124; 247 | // DATA[0..7] = latch[5]                                               
    1125;----------------------------------------------------------------------
    1126        .newblock
    1127 00000050 0000002400048E          LDI      r14.w0, 4
    1128 00000054 00000005018E8E  $1:     SUB      r14.w0, r14.w0, 1
    1129 00000058 0000006F008EFF          QBNE     $1, r14.w0, 0         ; [ALU_PRU] |245| 
    1130        .dwpsn  file "pru1_statemachine_dma.c",line 248,column 2,is_stmt,isa 0
    1131;----------------------------------------------------------------------
    1132; 248 | tmpval = buslatches_get(5);                                            
    1133; 249 | // DATA[8..15] = latch[6]                                              
    1134;----------------------------------------------------------------------
    1135 0000005c 000000240D00FE          LDI       r30, 0x0d00           ; [ALU_PRU] |248| 
    1136        .newblock
    1137 00000060 000480240000C0          LDI32    r0, 4
         00000067 00000000004024 
    1138 00000068 0000000501E0E0  $1:     SUB      r0, r0, 1
PRU Assembler Unix v2.3.1 Sun Mar 31 20:55:35 2019

Tools Copyright (c) 2012-2017 Texas Instruments Incorporated
pru1_statemachine_dma.asm                                            PAGE   22

    1139 0000006c 0000006F00E0FF          QBNE     $1, r0, 0             ; [ALU_PRU] |248| 
    1140 00000070 00000010FFFFE0          MOV       r0, r31               ; [ALU_PRU] |248| 
    1141 00000074 00000011FF808E          AND       r14.w0, r0.w0, 0xff   ; [ALU_PRU] |248| tmpval
    1142        .dwpsn  file "pru1_statemachine_dma.c",line 250,column 2,is_stmt,isa 0
    1143;----------------------------------------------------------------------
    1144; 250 | tmpval |= (buslatches_get(6) << 8);                                    
    1145; 251 | // save in buffer                                                      
    1146; 252 | *sm_dma.dataptr = tmpval;                                              
    1147; 253 | // mailbox.dma.words[sm_dma.cur_wordidx] = tmpval;                     
    1148; 254 | // negate MSYN                                                         
    1149;----------------------------------------------------------------------
    1150 00000078 000000240E00FE          LDI       r30, 0x0e00           ; [ALU_PRU] |250| 
    1151        .newblock
    1152 0000007c 000481240000C1          LDI32    r1, 4
         00000083 00000000004024 
    1153 00000084 0000000501E1E1  $1:     SUB      r1, r1, 1
    1154 00000088 0000006F00E1FF          QBNE     $1, r1, 0             ; [ALU_PRU] |250| 
    1155        .dwpsn  file "pru1_statemachine_dma.c",line 255,column 2,is_stmt,isa 0
    1156;----------------------------------------------------------------------
    1157; 255 | buslatches_setbits(4, BIT(4), 0);                                      
    1158;----------------------------------------------------------------------
    1159 0000008c 000000240004E7!         LDI       r7, ||buslatches||+4  ; [ALU_PRU] |255| $O$C1,buslatches
    1160        .dwpsn  file "pru1_statemachine_dma.c",line 250,column 2,is_stmt,isa 0
    1161 00000090 0000000918FFE0          LSL       r0, r31, 0x18         ; [ALU_PRU] |250| 
    1162 00000094 00000012C08E8E          OR        r14.w0, r14.w0, r0.w2 ; [ALU_PRU] |250| tmpval,tmpval
    1163        .dwpsn  file "pru1_statemachine_dma.c",line 252,column 2,is_stmt,isa 0
    1164 00000098 000000F1032480          LBBO      &r0, r4, 3, 4         ; [ALU_PRU] |252| $O$K11
    1165 0000009c 000000E100008E          SBBO      &r14.w0, r0, 0, 2     ; [ALU_PRU] |252| tmpval
    1166        .dwpsn  file "pru1_statemachine_dma.c",line 255,column 2,is_stmt,isa 0
    1167;----------------------------------------------------------------------
    1168; 256 | // DATI: remove address,control, MSYN,SSYN from bus, 75ns after MSYN in
    1169;     | active                                                                 
    1170;----------------------------------------------------------------------
    1171 000000a0 000000F1000700          LBBO      &r0.b0, r7, 0, 1      ; [ALU_PRU] |255| $O$C1
    1172 000000a4 00000011EF0005          AND       r5.b0, r0.b0, 0xef    ; [ALU_PRU] |255| $O$C2
    1173 000000a8 000000100505EE          MOV       r14, r5.b0            ; [ALU_PRU] |255| $O$C2
    1174$C$DW$60        .dwtag  DW_TAG_TI_branch
    1175        .dwattr $C$DW$60, DW_AT_low_pc(0x00)
    1176        .dwattr $C$DW$60, DW_AT_name("buslatches_pru0_dataout")
    1177        .dwattr $C$DW$60, DW_AT_TI_call
    1178
    1179 000000ac 000000230000C3!         JAL       r3.w2, ||buslatches_pru0_dataout|| ; [ALU_PRU] |255| buslatches_pru0_dataout
    1180 000000b0 000000240400FE          LDI       r30, 0x0400           ; [ALU_PRU] |255| 
    1181 000000b4 000000E1000705          SBBO      &r5.b0, r7, 0, 1      ; [ALU_PRU] |255| $O$C1,_tmpval
    1182        .newblock
    1183 000000b8 000186240000C6          LDI32    r6, 1
         000000bf 00000000004024 
    1184 000000c0 0000000501E6E6  $1:     SUB      r6, r6, 1
    1185 000000c4 0000006F00E6FF          QBNE     $1, r6, 0             ; [ALU_PRU] |255| 
    1186 000000c8 000000240C00FE          LDI       r30, 0x0c00           ; [ALU_PRU] |255| 
    1187        .dwpsn  file "pru1_statemachine_dma.c",line 257,column 2,is_stmt,isa 0
    1188;----------------------------------------------------------------------
    1189; 257 | __delay_cycles(NANOSECS(75) - 8); // assume 8 cycles for state change  
    1190;----------------------------------------------------------------------
    1191        .newblock
PRU Assembler Unix v2.3.1 Sun Mar 31 20:55:35 2019

Tools Copyright (c) 2012-2017 Texas Instruments Incorporated
pru1_statemachine_dma.asm                                            PAGE   23

    1192 000000cc 000000240003A5          LDI      r5.w1, 3
    1193 000000d0 0000000501A5A5  $1:     SUB      r5.w1, r5.w1, 1
    1194 000000d4 0000006F00A5FF          QBNE     $1, r5.w1, 0          ; [ALU_PRU] |257| 
    1195        .dwpsn  file "pru1_statemachine_dma.c",line 258,column 2,is_stmt,isa 0
    1196;----------------------------------------------------------------------
    1197; 258 | sm_dma.state = &sm_dma_state_99;                                       
    1198; 259 | return 0; // still running                                             
    1199;----------------------------------------------------------------------
    1200 000000d8 00000024000080!         LDI       r0.w0, $CODE(||sm_dma_state_99||) ; [ALU_PRU] |258| sm_dma_state_99
    1201 000000dc 000000E1000480          SBBO      &r0.w0, r4, 0, 2      ; [ALU_PRU] |258| $O$K11
    1202;* --------------------------------------------------------------------------*
    1203 000000e0                 ||$C$L11||:    
    1204;***    -----------------------g4:
    1205;*** 243        -----------------------    return 0;
    1206 000000e0 000000F1008243          LBBO      &r3.b2, r2, 0, 9      ; [ALU_PRU] 
    1207        .dwcfi  restore_reg, 14
    1208        .dwcfi  restore_reg, 15
    1209        .dwcfi  restore_reg, 16
    1210        .dwcfi  restore_reg, 17
    1211        .dwcfi  restore_reg, 18
    1212        .dwcfi  restore_reg, 19
    1213        .dwcfi  restore_reg, 20
    1214        .dwcfi  restore_reg, 21
    1215        .dwcfi  restore_reg, 22
    1216 000000e4 000000F1096286          LBBO      &r6.b0, r2, 9, 8      ; [ALU_PRU] 
    1217        .dwcfi  restore_reg, 24
    1218        .dwcfi  restore_reg, 25
    1219        .dwcfi  restore_reg, 26
    1220        .dwcfi  restore_reg, 27
    1221        .dwcfi  restore_reg, 28
    1222        .dwcfi  restore_reg, 29
    1223        .dwcfi  restore_reg, 30
    1224        .dwcfi  restore_reg, 31
    1225        .dwpsn  file "pru1_statemachine_dma.c",line 243,column 3,is_stmt,isa 0
    1226 000000e8 0000002400000E          LDI       r14.b0, 0x00          ; [ALU_PRU] |243| 
    1227 000000ec 0000000111E2E2          ADD       r2, r2, 0x11          ; [ALU_PRU] 
    1228        .dwcfi  cfa_offset, 0
    1229$C$DW$61        .dwtag  DW_TAG_TI_branch
    1230        .dwattr $C$DW$61, DW_AT_low_pc(0x00)
    1231        .dwattr $C$DW$61, DW_AT_TI_return
    1232
    1233 000000f0 00000020C30000          JMP       r3.w2                 ; [ALU_PRU] 
    1234        .dwattr $C$DW$52, DW_AT_TI_end_file("pru1_statemachine_dma.c")
    1235        .dwattr $C$DW$52, DW_AT_TI_end_line(0x104)
    1236        .dwattr $C$DW$52, DW_AT_TI_end_column(0x01)
    1237        .dwendentry
    1238        .dwendtag $C$DW$52
    1239
    1240 00000000                         .sect   ".text:sm_dma_state_1"
    1241        .clink
    1242
    1243$C$DW$62        .dwtag  DW_TAG_subprogram
    1244        .dwattr $C$DW$62, DW_AT_name("sm_dma_state_1")
    1245        .dwattr $C$DW$62, DW_AT_low_pc(||sm_dma_state_1||)
    1246        .dwattr $C$DW$62, DW_AT_high_pc(0x00)
PRU Assembler Unix v2.3.1 Sun Mar 31 20:55:35 2019

Tools Copyright (c) 2012-2017 Texas Instruments Incorporated
pru1_statemachine_dma.asm                                            PAGE   24

    1247        .dwattr $C$DW$62, DW_AT_TI_symbol_name("sm_dma_state_1")
    1248        .dwattr $C$DW$62, DW_AT_type(*$C$DW$T$22)
    1249        .dwattr $C$DW$62, DW_AT_TI_begin_file("pru1_statemachine_dma.c")
    1250        .dwattr $C$DW$62, DW_AT_TI_begin_line(0x63)
    1251        .dwattr $C$DW$62, DW_AT_TI_begin_column(0x10)
    1252        .dwattr $C$DW$62, DW_AT_decl_file("pru1_statemachine_dma.c")
    1253        .dwattr $C$DW$62, DW_AT_decl_line(0x63)
    1254        .dwattr $C$DW$62, DW_AT_decl_column(0x10)
    1255        .dwattr $C$DW$62, DW_AT_TI_max_frame_size(0x28)
    1256        .dwpsn  file "pru1_statemachine_dma.c",line 99,column 33,is_stmt,address ||sm_dma_state_1||,is
    1257
    1258        .dwfde $C$DW$CIE, ||sm_dma_state_1||
    1259;----------------------------------------------------------------------
    1260;  99 | static uint8_t sm_dma_state_1() {                                      
    1261; 100 | uint32_t tmpval;                                                       
    1262;----------------------------------------------------------------------
    1263
    1264;***************************************************************
    1265;* FNAME: sm_dma_state_1                FR SIZE:  40           *
    1266;*                                                             *
    1267;* FUNCTION ENVIRONMENT                                        *
    1268;*                                                             *
    1269;* FUNCTION PROPERTIES                                         *
    1270;*                            2 Auto, 38 SOE     *
    1271;***************************************************************
    1272
    1273||sm_dma_state_1||:
    1274;* --------------------------------------------------------------------------*
    1275$C$DW$63        .dwtag  DW_TAG_variable
    1276        .dwattr $C$DW$63, DW_AT_name("data")
    1277        .dwattr $C$DW$63, DW_AT_TI_symbol_name("data")
    1278        .dwattr $C$DW$63, DW_AT_type(*$C$DW$T$24)
    1279        .dwattr $C$DW$63, DW_AT_location[DW_OP_breg8 0]
    1280
    1281;* r4_0  assigned to $O$C1
    1282$C$DW$64        .dwtag  DW_TAG_variable
    1283        .dwattr $C$DW$64, DW_AT_name("$O$C1")
    1284        .dwattr $C$DW$64, DW_AT_TI_symbol_name("$O$C1")
    1285        .dwattr $C$DW$64, DW_AT_type(*$C$DW$T$6)
    1286        .dwattr $C$DW$64, DW_AT_location[DW_OP_reg16]
    1287
    1288;* r6_0  assigned to $O$C2
    1289$C$DW$65        .dwtag  DW_TAG_variable
    1290        .dwattr $C$DW$65, DW_AT_name("$O$C2")
    1291        .dwattr $C$DW$65, DW_AT_TI_symbol_name("$O$C2")
    1292        .dwattr $C$DW$65, DW_AT_type(*$C$DW$T$6)
    1293        .dwattr $C$DW$65, DW_AT_location[DW_OP_reg24]
    1294
    1295;* r6_0  assigned to $O$C3
    1296$C$DW$66        .dwtag  DW_TAG_variable
    1297        .dwattr $C$DW$66, DW_AT_name("$O$C3")
    1298        .dwattr $C$DW$66, DW_AT_TI_symbol_name("$O$C3")
    1299        .dwattr $C$DW$66, DW_AT_type(*$C$DW$T$6)
    1300        .dwattr $C$DW$66, DW_AT_location[DW_OP_reg24]
    1301
PRU Assembler Unix v2.3.1 Sun Mar 31 20:55:35 2019

Tools Copyright (c) 2012-2017 Texas Instruments Incorporated
pru1_statemachine_dma.asm                                            PAGE   25

    1302;* r0_0  assigned to $O$C4
    1303$C$DW$67        .dwtag  DW_TAG_variable
    1304        .dwattr $C$DW$67, DW_AT_name("$O$C4")
    1305        .dwattr $C$DW$67, DW_AT_TI_symbol_name("$O$C4")
    1306        .dwattr $C$DW$67, DW_AT_type(*$C$DW$T$140)
    1307        .dwattr $C$DW$67, DW_AT_location[DW_OP_reg0]
    1308
    1309;* r6_0  assigned to $O$C5
    1310$C$DW$68        .dwtag  DW_TAG_variable
    1311        .dwattr $C$DW$68, DW_AT_name("$O$C5")
    1312        .dwattr $C$DW$68, DW_AT_TI_symbol_name("$O$C5")
    1313        .dwattr $C$DW$68, DW_AT_type(*$C$DW$T$6)
    1314        .dwattr $C$DW$68, DW_AT_location[DW_OP_reg24]
    1315
    1316;* r0_0  assigned to $O$C6
    1317$C$DW$69        .dwtag  DW_TAG_variable
    1318        .dwattr $C$DW$69, DW_AT_name("$O$C6")
    1319        .dwattr $C$DW$69, DW_AT_TI_symbol_name("$O$C6")
    1320        .dwattr $C$DW$69, DW_AT_type(*$C$DW$T$9)
    1321        .dwattr $C$DW$69, DW_AT_location[DW_OP_reg0]
    1322
    1323;* r6_0  assigned to $O$C7
    1324$C$DW$70        .dwtag  DW_TAG_variable
    1325        .dwattr $C$DW$70, DW_AT_name("$O$C7")
    1326        .dwattr $C$DW$70, DW_AT_TI_symbol_name("$O$C7")
    1327        .dwattr $C$DW$70, DW_AT_type(*$C$DW$T$6)
    1328        .dwattr $C$DW$70, DW_AT_location[DW_OP_reg24]
    1329
    1330;* r4_0  assigned to $O$C8
    1331$C$DW$71        .dwtag  DW_TAG_variable
    1332        .dwattr $C$DW$71, DW_AT_name("$O$C8")
    1333        .dwattr $C$DW$71, DW_AT_TI_symbol_name("$O$C8")
    1334        .dwattr $C$DW$71, DW_AT_type(*$C$DW$T$6)
    1335        .dwattr $C$DW$71, DW_AT_location[DW_OP_reg16]
    1336
    1337;* r6_0  assigned to $O$C9
    1338$C$DW$72        .dwtag  DW_TAG_variable
    1339        .dwattr $C$DW$72, DW_AT_name("$O$C9")
    1340        .dwattr $C$DW$72, DW_AT_TI_symbol_name("$O$C9")
    1341        .dwattr $C$DW$72, DW_AT_type(*$C$DW$T$6)
    1342        .dwattr $C$DW$72, DW_AT_location[DW_OP_reg24]
    1343
    1344;* r6_0  assigned to $O$C10
    1345$C$DW$73        .dwtag  DW_TAG_variable
    1346        .dwattr $C$DW$73, DW_AT_name("$O$C10")
    1347        .dwattr $C$DW$73, DW_AT_TI_symbol_name("$O$C10")
    1348        .dwattr $C$DW$73, DW_AT_type(*$C$DW$T$6)
    1349        .dwattr $C$DW$73, DW_AT_location[DW_OP_reg24]
    1350
    1351;* r0_0  assigned to $O$C11
    1352$C$DW$74        .dwtag  DW_TAG_variable
    1353        .dwattr $C$DW$74, DW_AT_name("$O$C11")
    1354        .dwattr $C$DW$74, DW_AT_TI_symbol_name("$O$C11")
    1355        .dwattr $C$DW$74, DW_AT_type(*$C$DW$T$140)
    1356        .dwattr $C$DW$74, DW_AT_location[DW_OP_reg0]
PRU Assembler Unix v2.3.1 Sun Mar 31 20:55:35 2019

Tools Copyright (c) 2012-2017 Texas Instruments Incorporated
pru1_statemachine_dma.asm                                            PAGE   26

    1357
    1358;* r5_0  assigned to $O$C12
    1359$C$DW$75        .dwtag  DW_TAG_variable
    1360        .dwattr $C$DW$75, DW_AT_name("$O$C12")
    1361        .dwattr $C$DW$75, DW_AT_TI_symbol_name("$O$C12")
    1362        .dwattr $C$DW$75, DW_AT_type(*$C$DW$T$10)
    1363        .dwattr $C$DW$75, DW_AT_location[DW_OP_reg20]
    1364
    1365;* r6_0  assigned to $O$C13
    1366$C$DW$76        .dwtag  DW_TAG_variable
    1367        .dwattr $C$DW$76, DW_AT_name("$O$C13")
    1368        .dwattr $C$DW$76, DW_AT_TI_symbol_name("$O$C13")
    1369        .dwattr $C$DW$76, DW_AT_type(*$C$DW$T$6)
    1370        .dwattr $C$DW$76, DW_AT_location[DW_OP_reg24]
    1371
    1372;* r6_0  assigned to $O$C14
    1373$C$DW$77        .dwtag  DW_TAG_variable
    1374        .dwattr $C$DW$77, DW_AT_name("$O$C14")
    1375        .dwattr $C$DW$77, DW_AT_TI_symbol_name("$O$C14")
    1376        .dwattr $C$DW$77, DW_AT_type(*$C$DW$T$6)
    1377        .dwattr $C$DW$77, DW_AT_location[DW_OP_reg24]
    1378
    1379;* r5_0  assigned to $O$C15
    1380$C$DW$78        .dwtag  DW_TAG_variable
    1381        .dwattr $C$DW$78, DW_AT_name("$O$C15")
    1382        .dwattr $C$DW$78, DW_AT_TI_symbol_name("$O$C15")
    1383        .dwattr $C$DW$78, DW_AT_type(*$C$DW$T$6)
    1384        .dwattr $C$DW$78, DW_AT_location[DW_OP_reg20]
    1385
    1386;* r4_0  assigned to $O$C16
    1387$C$DW$79        .dwtag  DW_TAG_variable
    1388        .dwattr $C$DW$79, DW_AT_name("$O$C16")
    1389        .dwattr $C$DW$79, DW_AT_TI_symbol_name("$O$C16")
    1390        .dwattr $C$DW$79, DW_AT_type(*$C$DW$T$130)
    1391        .dwattr $C$DW$79, DW_AT_location[DW_OP_reg16]
    1392
    1393;* r7_0  assigned to $O$K22
    1394$C$DW$80        .dwtag  DW_TAG_variable
    1395        .dwattr $C$DW$80, DW_AT_name("$O$K22")
    1396        .dwattr $C$DW$80, DW_AT_TI_symbol_name("$O$K22")
    1397        .dwattr $C$DW$80, DW_AT_type(*$C$DW$T$159)
    1398        .dwattr $C$DW$80, DW_AT_location[DW_OP_reg28]
    1399
    1400;* r7_0  assigned to $O$K22
    1401$C$DW$81        .dwtag  DW_TAG_variable
    1402        .dwattr $C$DW$81, DW_AT_name("$O$K22")
    1403        .dwattr $C$DW$81, DW_AT_TI_symbol_name("$O$K22")
    1404        .dwattr $C$DW$81, DW_AT_type(*$C$DW$T$159)
    1405        .dwattr $C$DW$81, DW_AT_location[DW_OP_reg28]
    1406
    1407;* r4_0  assigned to $O$K3
    1408$C$DW$82        .dwtag  DW_TAG_variable
    1409        .dwattr $C$DW$82, DW_AT_name("$O$K3")
    1410        .dwattr $C$DW$82, DW_AT_TI_symbol_name("$O$K3")
    1411        .dwattr $C$DW$82, DW_AT_type(*$C$DW$T$130)
PRU Assembler Unix v2.3.1 Sun Mar 31 20:55:35 2019

Tools Copyright (c) 2012-2017 Texas Instruments Incorporated
pru1_statemachine_dma.asm                                            PAGE   27

    1412        .dwattr $C$DW$82, DW_AT_location[DW_OP_reg16]
    1413
    1414;* r8_0  assigned to $O$K16
    1415$C$DW$83        .dwtag  DW_TAG_variable
    1416        .dwattr $C$DW$83, DW_AT_name("$O$K16")
    1417        .dwattr $C$DW$83, DW_AT_TI_symbol_name("$O$K16")
    1418        .dwattr $C$DW$83, DW_AT_type(*$C$DW$T$138)
    1419        .dwattr $C$DW$83, DW_AT_location[DW_OP_regx 0x20]
    1420
    1421;* r0_0  assigned to tmpval
    1422$C$DW$84        .dwtag  DW_TAG_variable
    1423        .dwattr $C$DW$84, DW_AT_name("tmpval")
    1424        .dwattr $C$DW$84, DW_AT_TI_symbol_name("tmpval")
    1425        .dwattr $C$DW$84, DW_AT_type(*$C$DW$T$23)
    1426        .dwattr $C$DW$84, DW_AT_location[DW_OP_reg0]
    1427
    1428;* r9_0  assigned to addr
    1429$C$DW$85        .dwtag  DW_TAG_variable
    1430        .dwattr $C$DW$85, DW_AT_name("addr")
    1431        .dwattr $C$DW$85, DW_AT_TI_symbol_name("addr")
    1432        .dwattr $C$DW$85, DW_AT_type(*$C$DW$T$23)
    1433        .dwattr $C$DW$85, DW_AT_location[DW_OP_regx 0x24]
    1434
    1435;* r6_1  assigned to control
    1436$C$DW$86        .dwtag  DW_TAG_variable
    1437        .dwattr $C$DW$86, DW_AT_name("control")
    1438        .dwattr $C$DW$86, DW_AT_TI_symbol_name("control")
    1439        .dwattr $C$DW$86, DW_AT_type(*$C$DW$T$22)
    1440        .dwattr $C$DW$86, DW_AT_location[DW_OP_reg25]
    1441
    1442;* r15_0 assigned to b
    1443$C$DW$87        .dwtag  DW_TAG_variable
    1444        .dwattr $C$DW$87, DW_AT_name("b")
    1445        .dwattr $C$DW$87, DW_AT_TI_symbol_name("b")
    1446        .dwattr $C$DW$87, DW_AT_type(*$C$DW$T$22)
    1447        .dwattr $C$DW$87, DW_AT_location[DW_OP_regx 0x3c]
    1448
    1449;* r5_0  assigned to _tmpval
    1450$C$DW$88        .dwtag  DW_TAG_variable
    1451        .dwattr $C$DW$88, DW_AT_name("_tmpval")
    1452        .dwattr $C$DW$88, DW_AT_TI_symbol_name("_tmpval")
    1453        .dwattr $C$DW$88, DW_AT_type(*$C$DW$T$22)
    1454        .dwattr $C$DW$88, DW_AT_location[DW_OP_reg20]
    1455
    1456;* r6_0  assigned to _tmpval
    1457$C$DW$89        .dwtag  DW_TAG_variable
    1458        .dwattr $C$DW$89, DW_AT_name("_tmpval")
    1459        .dwattr $C$DW$89, DW_AT_TI_symbol_name("_tmpval")
    1460        .dwattr $C$DW$89, DW_AT_type(*$C$DW$T$22)
    1461        .dwattr $C$DW$89, DW_AT_location[DW_OP_reg24]
    1462
    1463;* r6_0  assigned to _tmpval
    1464$C$DW$90        .dwtag  DW_TAG_variable
    1465        .dwattr $C$DW$90, DW_AT_name("_tmpval")
    1466        .dwattr $C$DW$90, DW_AT_TI_symbol_name("_tmpval")
PRU Assembler Unix v2.3.1 Sun Mar 31 20:55:35 2019

Tools Copyright (c) 2012-2017 Texas Instruments Incorporated
pru1_statemachine_dma.asm                                            PAGE   28

    1467        .dwattr $C$DW$90, DW_AT_type(*$C$DW$T$22)
    1468        .dwattr $C$DW$90, DW_AT_location[DW_OP_reg24]
    1469
    1470;* r6_0  assigned to _tmpval
    1471$C$DW$91        .dwtag  DW_TAG_variable
    1472        .dwattr $C$DW$91, DW_AT_name("_tmpval")
    1473        .dwattr $C$DW$91, DW_AT_TI_symbol_name("_tmpval")
    1474        .dwattr $C$DW$91, DW_AT_type(*$C$DW$T$22)
    1475        .dwattr $C$DW$91, DW_AT_location[DW_OP_reg24]
    1476
    1477;* r6_0  assigned to _tmpval
    1478$C$DW$92        .dwtag  DW_TAG_variable
    1479        .dwattr $C$DW$92, DW_AT_name("_tmpval")
    1480        .dwattr $C$DW$92, DW_AT_TI_symbol_name("_tmpval")
    1481        .dwattr $C$DW$92, DW_AT_type(*$C$DW$T$22)
    1482        .dwattr $C$DW$92, DW_AT_location[DW_OP_reg24]
    1483
    1484;* r4_0  assigned to _tmpval
    1485$C$DW$93        .dwtag  DW_TAG_variable
    1486        .dwattr $C$DW$93, DW_AT_name("_tmpval")
    1487        .dwattr $C$DW$93, DW_AT_TI_symbol_name("_tmpval")
    1488        .dwattr $C$DW$93, DW_AT_type(*$C$DW$T$22)
    1489        .dwattr $C$DW$93, DW_AT_location[DW_OP_reg16]
    1490
    1491;* r6_0  assigned to _tmpval
    1492$C$DW$94        .dwtag  DW_TAG_variable
    1493        .dwattr $C$DW$94, DW_AT_name("_tmpval")
    1494        .dwattr $C$DW$94, DW_AT_TI_symbol_name("_tmpval")
    1495        .dwattr $C$DW$94, DW_AT_type(*$C$DW$T$22)
    1496        .dwattr $C$DW$94, DW_AT_location[DW_OP_reg24]
    1497
    1498;* r6_0  assigned to _tmpval
    1499$C$DW$95        .dwtag  DW_TAG_variable
    1500        .dwattr $C$DW$95, DW_AT_name("_tmpval")
    1501        .dwattr $C$DW$95, DW_AT_TI_symbol_name("_tmpval")
    1502        .dwattr $C$DW$95, DW_AT_type(*$C$DW$T$22)
    1503        .dwattr $C$DW$95, DW_AT_location[DW_OP_reg24]
    1504
    1505;* r6_0  assigned to _tmpval
    1506$C$DW$96        .dwtag  DW_TAG_variable
    1507        .dwattr $C$DW$96, DW_AT_name("_tmpval")
    1508        .dwattr $C$DW$96, DW_AT_TI_symbol_name("_tmpval")
    1509        .dwattr $C$DW$96, DW_AT_type(*$C$DW$T$22)
    1510        .dwattr $C$DW$96, DW_AT_location[DW_OP_reg24]
    1511
    1512;* r6_0  assigned to _tmpval
    1513$C$DW$97        .dwtag  DW_TAG_variable
    1514        .dwattr $C$DW$97, DW_AT_name("_tmpval")
    1515        .dwattr $C$DW$97, DW_AT_TI_symbol_name("_tmpval")
    1516        .dwattr $C$DW$97, DW_AT_type(*$C$DW$T$22)
    1517        .dwattr $C$DW$97, DW_AT_location[DW_OP_reg24]
    1518
    1519;* r4_0  assigned to _tmpval
    1520$C$DW$98        .dwtag  DW_TAG_variable
    1521        .dwattr $C$DW$98, DW_AT_name("_tmpval")
PRU Assembler Unix v2.3.1 Sun Mar 31 20:55:35 2019

Tools Copyright (c) 2012-2017 Texas Instruments Incorporated
pru1_statemachine_dma.asm                                            PAGE   29

    1522        .dwattr $C$DW$98, DW_AT_TI_symbol_name("_tmpval")
    1523        .dwattr $C$DW$98, DW_AT_type(*$C$DW$T$22)
    1524        .dwattr $C$DW$98, DW_AT_location[DW_OP_reg16]
    1525
    1526        .dwcfi  cfa_offset, 0
    1527;*** 101        -----------------------    addr = (*(C$16 = &mailbox)).$P$T1.dma.cur_addr;
    1528;*** 103        -----------------------    control = (*C$16).$P$T1.dma.control;
    1529;*** 108        -----------------------    if ( (*C$16).$P$T1.dma.cur_status != 2 ) goto g3;
    1530 00000000 0000000528E2E2          SUB       r2, r2, 0x28          ; [ALU_PRU] 
    1531        .dwcfi  cfa_offset, 40
    1532 00000004 000000E50242C3          SBBO      &r3.b2, r2, 2, 38     ; [ALU_PRU] 
    1533        .dwcfi  save_reg_to_mem, 14, -38
    1534        .dwcfi  save_reg_to_mem, 15, -37
    1535        .dwcfi  save_reg_to_mem, 16, -36
    1536        .dwcfi  save_reg_to_mem, 17, -35
    1537        .dwcfi  save_reg_to_mem, 18, -34
    1538        .dwcfi  save_reg_to_mem, 19, -33
    1539        .dwcfi  save_reg_to_mem, 20, -32
    1540        .dwcfi  save_reg_to_mem, 21, -31
    1541        .dwcfi  save_reg_to_mem, 22, -30
    1542        .dwcfi  save_reg_to_mem, 23, -29
    1543        .dwcfi  save_reg_to_mem, 24, -28
    1544        .dwcfi  save_reg_to_mem, 25, -27
    1545        .dwcfi  save_reg_to_mem, 26, -26
    1546        .dwcfi  save_reg_to_mem, 27, -25
    1547        .dwcfi  save_reg_to_mem, 28, -24
    1548        .dwcfi  save_reg_to_mem, 29, -23
    1549        .dwcfi  save_reg_to_mem, 30, -22
    1550        .dwcfi  save_reg_to_mem, 31, -21
    1551        .dwcfi  save_reg_to_mem, 32, -20
    1552        .dwcfi  save_reg_to_mem, 33, -19
    1553        .dwcfi  save_reg_to_mem, 34, -18
    1554        .dwcfi  save_reg_to_mem, 35, -17
    1555        .dwcfi  save_reg_to_mem, 36, -16
    1556        .dwcfi  save_reg_to_mem, 37, -15
    1557        .dwcfi  save_reg_to_mem, 38, -14
    1558        .dwcfi  save_reg_to_mem, 39, -13
    1559        .dwcfi  save_reg_to_mem, 40, -12
    1560        .dwcfi  save_reg_to_mem, 41, -11
    1561        .dwcfi  save_reg_to_mem, 42, -10
    1562        .dwcfi  save_reg_to_mem, 43, -9
    1563        .dwcfi  save_reg_to_mem, 44, -8
    1564        .dwcfi  save_reg_to_mem, 45, -7
    1565        .dwcfi  save_reg_to_mem, 46, -6
    1566        .dwcfi  save_reg_to_mem, 47, -5
    1567        .dwcfi  save_reg_to_mem, 48, -4
    1568        .dwcfi  save_reg_to_mem, 49, -3
    1569        .dwcfi  save_reg_to_mem, 50, -2
    1570        .dwcfi  save_reg_to_mem, 51, -1
    1571        .dwpsn  file "pru1_statemachine_dma.c",line 101,column 16,is_stmt,isa 0
    1572;----------------------------------------------------------------------
    1573; 101 | uint32_t addr = mailbox.dma.cur_addr; // non-volatile snapshot         
    1574; 102 | uint16_t data;                                                         
    1575;----------------------------------------------------------------------
    1576 00000008 000084240000C4!         LDI32     r4, ||mailbox||       ; [ALU_PRU] |101| $O$C16,mailbox
PRU Assembler Unix v2.3.1 Sun Mar 31 20:55:35 2019

Tools Copyright (c) 2012-2017 Texas Instruments Incorporated
pru1_statemachine_dma.asm                                            PAGE   30

         0000000f 00000021004024 
    1577 00000010 000000F11C2489          LBBO      &r9, r4, 28, 4        ; [ALU_PRU] |101| addr,$O$C16
    1578        .dwpsn  file "pru1_statemachine_dma.c",line 103,column 18,is_stmt,isa 0
    1579;----------------------------------------------------------------------
    1580; 103 | uint8_t control = mailbox.dma.control;                                 
    1581; 104 | // uint8_t page_table_entry;                                           
    1582; 105 | uint8_t b;                                                             
    1583; 106 | bool internal;                                                         
    1584;----------------------------------------------------------------------
    1585 00000014 000000F1190426          LBBO      &r6.b1, r4, 25, 1     ; [ALU_PRU] |103| control,$O$C16
    1586        .dwpsn  file "pru1_statemachine_dma.c",line 108,column 2,is_stmt,isa 0
    1587;----------------------------------------------------------------------
    1588; 108 | if (mailbox.dma.cur_status != DMA_STATE_RUNNING || mailbox.dma.wordcoun
    1589;     | t == 0)                                                                
    1590;----------------------------------------------------------------------
    1591 00000018 000000F1180400          LBBO      &r0.b0, r4, 24, 1     ; [ALU_PRU] |108| $O$C16
    1592 0000001c 00000069020003          QBNE      ||$C$L12||, r0.b0, 0x02 ; [ALU_PRU] |108| 
    1593;* --------------------------------------------------------------------------*
    1594;*** 108        -----------------------    K$3 = C$16;
    1595;*** 108        -----------------------    if ( (*K$3).$P$T1.dma.wordcount ) goto g4;
    1596 00000020 000000F11A0480          LBBO      &r0.w0, r4, 26, 2     ; [ALU_PRU] |108| $O$K3
    1597 00000024 00000069008003          QBNE      ||$C$L13||, r0.w0, 0x00 ; [ALU_PRU] |108| 
    1598;* --------------------------------------------------------------------------*
    1599 00000028                 ||$C$L12||:    
    1600;***    -----------------------g3:
    1601;*** 109        -----------------------    return 1;
    1602        .dwpsn  file "pru1_statemachine_dma.c",line 109,column 3,is_stmt,isa 0
    1603;----------------------------------------------------------------------
    1604; 109 | return 1; // still stopped                                             
    1605;----------------------------------------------------------------------
    1606 00000028 0000002400010E          LDI       r14.b0, 0x01          ; [ALU_PRU] |109| 
    1607 0000002c 00000021000000!         JMP       ||$C$L26||            ; [ALU_PRU] |109| 
    1608;* --------------------------------------------------------------------------*
    1609 00000030                 ||$C$L13||:    
    1610;***    -----------------------g4:
    1611;*** 111        -----------------------    if ( sm_dma.cur_wordsleft != 1 ) goto g6;
    1612        .dwpsn  file "pru1_statemachine_dma.c",line 111,column 2,is_stmt,isa 0
    1613;----------------------------------------------------------------------
    1614; 111 | if (sm_dma.cur_wordsleft == 1) {                                       
    1615; 112 |         // deassert SACK, enable next arbitration cycle                
    1616; 113 |         // deassert SACK before deassert BBSY                          
    1617; 114 |         // parallel to last word data transfer                         
    1618;----------------------------------------------------------------------
    1619 00000030 000000240007E0!         LDI       r0, ||sm_dma||+7      ; [ALU_PRU] |111| sm_dma
    1620 00000034 000000F1000080          LBBO      &r0.w0, r0, 0, 2      ; [ALU_PRU] |111| 
    1621 00000038 0000006901800D          QBNE      ||$C$L14||, r0.w0, 0x01 ; [ALU_PRU] |111| 
    1622;* --------------------------------------------------------------------------*
    1623;*** 115        -----------------------    _tmpval = C$15 = (unsigned char)(*(K$22 = &buslatches+1)&0x
    1624;*** 115        -----------------------    buslatches_pru0_dataout((unsigned)C$15);
    1625;*** 115        -----------------------    __R30 = 256u;
    1626;*** 115        -----------------------    *K$22 = _tmpval;
    1627;*** 115        -----------------------    __delay_cycles(4u);
    1628;*** 115        -----------------------    __R30 = 2304u;
    1629        .dwpsn  file "pru1_statemachine_dma.c",line 115,column 3,is_stmt,isa 0
    1630;----------------------------------------------------------------------
PRU Assembler Unix v2.3.1 Sun Mar 31 20:55:35 2019

Tools Copyright (c) 2012-2017 Texas Instruments Incorporated
pru1_statemachine_dma.asm                                            PAGE   31

    1631; 115 | buslatches_setbits(1, BIT(5), 0); // SACK = latch[1], bit 5            
    1632;----------------------------------------------------------------------
    1633 0000003c 000000240001E7!         LDI       r7, ||buslatches||+1  ; [ALU_PRU] |115| $O$K22,buslatches
    1634 00000040 000000F1000700          LBBO      &r0.b0, r7, 0, 1      ; [ALU_PRU] |115| $O$K22
    1635 00000044 00000011DF0005          AND       r5.b0, r0.b0, 0xdf    ; [ALU_PRU] |115| $O$C15
    1636 00000048 000000100505EE          MOV       r14, r5.b0            ; [ALU_PRU] |115| $O$C15
    1637$C$DW$99        .dwtag  DW_TAG_TI_branch
    1638        .dwattr $C$DW$99, DW_AT_low_pc(0x00)
    1639        .dwattr $C$DW$99, DW_AT_name("buslatches_pru0_dataout")
    1640        .dwattr $C$DW$99, DW_AT_TI_call
    1641
    1642 0000004c 000000230000C3!         JAL       r3.w2, ||buslatches_pru0_dataout|| ; [ALU_PRU] |115| buslatches_pru0_dataout
    1643 00000050 000000240100FE          LDI       r30, 0x0100           ; [ALU_PRU] |115| 
    1644 00000054 000000E1000705          SBBO      &r5.b0, r7, 0, 1      ; [ALU_PRU] |115| $O$K22,_tmpval
    1645        .newblock
    1646 00000058 000188240000C8          LDI32    r8, 1
         0000005f 00000000004024 
    1647 00000060 0000000501E8E8  $1:     SUB      r8, r8, 1
    1648 00000064 0000006F00E8FF          QBNE     $1, r8, 0             ; [ALU_PRU] |115| 
    1649 00000068 000000240900FE          LDI       r30, 0x0900           ; [ALU_PRU] |115| 
    1650;* --------------------------------------------------------------------------*
    1651 0000006c                 ||$C$L14||:    
    1652;***    -----------------------g6:
    1653;*** 118        -----------------------    (*(K$16 = &sm_dma)).state_timeout = C$12 = 0;
    1654;*** 121        -----------------------    buslatches_pru0_dataout(addr&0xffu);
    1655;*** 121        -----------------------    __R30 = 512u;
    1656;*** 121        -----------------------    __delay_cycles(6u);
    1657;*** 121        -----------------------    __R30 = 2560u;
    1658;*** 123        -----------------------    buslatches_pru0_dataout(addr>>8);
    1659;*** 123        -----------------------    __R30 = 768u;
    1660;*** 123        -----------------------    __delay_cycles(6u);
    1661;*** 123        -----------------------    __R30 = 2816u;
    1662;***    -----------------------    K$22 = &buslatches+4;
    1663;*** 129        -----------------------    if ( control&2 ) goto g12;
    1664        .dwpsn  file "pru1_statemachine_dma.c",line 118,column 2,is_stmt,isa 0
    1665;----------------------------------------------------------------------
    1666; 118 | sm_dma.state_timeout = 0;                                              
    1667; 120 | // addr0..7 = latch[2]                                                 
    1668;----------------------------------------------------------------------
    1669 0000006c 0000002EFF8185          ZERO      &r5, 4                ; [ALU_PRU] |118| $O$C12
    1670 00000070 000000240000E8!         LDI       r8, ||sm_dma||        ; [ALU_PRU] |118| $O$K16,sm_dma
    1671        .dwpsn  file "pru1_statemachine_dma.c",line 121,column 2,is_stmt,isa 0
    1672;----------------------------------------------------------------------
    1673; 121 | buslatches_setbyte(2, addr & 0xff);                                    
    1674;----------------------------------------------------------------------
    1675 00000074 00000011FFE9EE          AND       r14, r9, 0xff         ; [ALU_PRU] |121| addr
    1676        .dwpsn  file "pru1_statemachine_dma.c",line 118,column 2,is_stmt,isa 0
    1677 00000078 000000E1020805          SBBO      &r5.b0, r8, 2, 1      ; [ALU_PRU] |118| $O$K16
    1678        .dwpsn  file "pru1_statemachine_dma.c",line 121,column 2,is_stmt,isa 0
    1679;----------------------------------------------------------------------
    1680; 122 | // addr8..15 = latch[3]                                                
    1681;----------------------------------------------------------------------
    1682$C$DW$100       .dwtag  DW_TAG_TI_branch
    1683        .dwattr $C$DW$100, DW_AT_low_pc(0x00)
    1684        .dwattr $C$DW$100, DW_AT_name("buslatches_pru0_dataout")
PRU Assembler Unix v2.3.1 Sun Mar 31 20:55:35 2019

Tools Copyright (c) 2012-2017 Texas Instruments Incorporated
pru1_statemachine_dma.asm                                            PAGE   32

    1685        .dwattr $C$DW$100, DW_AT_TI_call
    1686
    1687 0000007c 000000230000C3!         JAL       r3.w2, ||buslatches_pru0_dataout|| ; [ALU_PRU] |121| buslatches_pru0_dataout
    1688 00000080 000000240200FE          LDI       r30, 0x0200           ; [ALU_PRU] |121| 
    1689        .newblock
    1690 00000084 00028A240000CA          LDI32    r10, 2
         0000008b 00000000004024 
    1691 0000008c 0000000501EAEA  $1:     SUB      r10, r10, 1
    1692 00000090 0000006F00EAFF          QBNE     $1, r10, 0            ; [ALU_PRU] |121| 
    1693        .dwpsn  file "pru1_statemachine_dma.c",line 123,column 2,is_stmt,isa 0
    1694;----------------------------------------------------------------------
    1695; 123 | buslatches_setbyte(3, (addr >> 8));                                    
    1696;----------------------------------------------------------------------
    1697 00000094 0000000B08E9EE          LSR       r14, r9, 0x08         ; [ALU_PRU] |123| addr
    1698        .dwpsn  file "pru1_statemachine_dma.c",line 121,column 2,is_stmt,isa 0
    1699 00000098 000000240A00FE          LDI       r30, 0x0a00           ; [ALU_PRU] |121| 
    1700        .dwpsn  file "pru1_statemachine_dma.c",line 123,column 2,is_stmt,isa 0
    1701;----------------------------------------------------------------------
    1702; 124 | // addr 16,17 = latch[4].0,1                                           
    1703; 125 | // C0 = latch[4], bit 2                                                
    1704; 126 | // C1 = latch[4], bit 3                                                
    1705; 127 | // MSYN = latch[4], bit 4                                              
    1706; 128 | // SSYN = latch[4], bit 5                                              
    1707;----------------------------------------------------------------------
    1708$C$DW$101       .dwtag  DW_TAG_TI_branch
    1709        .dwattr $C$DW$101, DW_AT_low_pc(0x00)
    1710        .dwattr $C$DW$101, DW_AT_name("buslatches_pru0_dataout")
    1711        .dwattr $C$DW$101, DW_AT_TI_call
    1712
    1713 0000009c 000000230000C3!         JAL       r3.w2, ||buslatches_pru0_dataout|| ; [ALU_PRU] |123| buslatches_pru0_dataout
    1714 000000a0 000000240300FE          LDI       r30, 0x0300           ; [ALU_PRU] |123| 
    1715        .newblock
    1716 000000a4 000287240000C7          LDI32    r7, 2
         000000ab 00000000004024 
    1717 000000ac 0000000501E7E7  $1:     SUB      r7, r7, 1
    1718 000000b0 0000006F00E7FF          QBNE     $1, r7, 0             ; [ALU_PRU] |123| 
    1719 000000b4 000000240004E7!         LDI       r7, ||buslatches||+4  ; [ALU_PRU] $O$K22,buslatches
    1720 000000b8 000000240B00FE          LDI       r30, 0x0b00           ; [ALU_PRU] |123| 
    1721        .dwpsn  file "pru1_statemachine_dma.c",line 129,column 2,is_stmt,isa 0
    1722;----------------------------------------------------------------------
    1723; 129 | if (UNIBUS_CONTROL_ISDATO(control)) {                                  
    1724; 130 |         tmpval = (addr >> 16) & 3;                                     
    1725; 131 |         tmpval |= BIT(3); // DATO: c1=1, c0=0                          
    1726; 132 |         // bit 2,4,5 == 0  -> C0,MSYN,SSYN not asserted                
    1727; 133 |         buslatches_setbits(4, 0x3f, tmpval);                           
    1728; 134 |         // write data. SSYN may still be active???                     
    1729; 135 | //              data = mailbox.dma.words[sm_dma.cur_wordidx];          
    1730; 136 |         data = *sm_dma.dataptr;                                        
    1731; 137 |         buslatches_setbyte(5, data & 0xff); // DATA[0..7] = latch[5]   
    1732; 138 |         buslatches_setbyte(6, data >> 8); // DATA[8..15] = latch[6]    
    1733; 139 |         // wait 150ns, but guaranteed to wait 150ns after SSYN inactive
    1734; 140 |         // prev SSYN & DATA may be still on bus, disturbes DATA        
    1735; 141 |         while (buslatches_get(4) & BIT(5))                             
    1736; 142 |                 ;       // wait for SSYN inactive                      
    1737; 143 |         __delay_cycles(NANOSECS(150) - 10);                            
PRU Assembler Unix v2.3.1 Sun Mar 31 20:55:35 2019

Tools Copyright (c) 2012-2017 Texas Instruments Incorporated
pru1_statemachine_dma.asm                                            PAGE   33

    1738; 144 |         // assume 10 cycles for buslatches_get and address test        
    1739; 145 |         // ADDR, CONTROL (and DATA) stable since 150ns, set MSYN       
    1740; 147 |         // use 150ns delay to check for internal address               
    1741; 148 |         // page_table_entry = PAGE_TABLE_ENTRY(deviceregisters,addr);  
    1742; 149 |         // !!! optimizer may not move this around !!!                  
    1743; 150 |         // try "volatile internal_addr" (__asm(";---") may be rearanged
    1744;     | )                                                                      
    1745; 152 |         // MSYN = latch[4], bit 4                                      
    1746; 153 |         buslatches_setbits(4, BIT(4), BIT(4)); // master assert MSYN   
    1747; 155 |         // DATO to internal slave (fast test).                         
    1748; 156 |         // write data into slave (                                     
    1749; 157 |         switch (control) {                                             
    1750; 158 |         case UNIBUS_CONTROL_DATO:                                      
    1751; 159 |                 internal = iopageregisters_write_w(addr, data);        
    1752; 160 |                 break;                                                 
    1753; 161 |         case UNIBUS_CONTROL_DATOB:                                     
    1754; 162 |                 // A00=1: upper byte, A00=0: lower byte                
    1755; 163 |                 b = (addr & 1) ? (data >> 8) : (data & 0xff);          
    1756; 164 |                 internal = iopageregisters_write_b(addr, b); // always
    1757;     | sucessful, addr already tested                                         
    1758; 165 |                 break;                                                 
    1759; 166 |         default:                                                       
    1760; 167 |                 internal = false; // not reached                       
    1761; 169 |         if (internal) {                                                
    1762; 170 |                 buslatches_setbits(4, BIT(5), BIT(5)); // slave assert
    1763;     | SSYN                                                                   
    1764; 171 |                 buslatches_setbits(4, BIT(4), 0); // master deassert MS
    1765;     | YN                                                                     
    1766; 172 |                 buslatches_setbyte(5, 0); // master removes data       
    1767; 173 |                 buslatches_setbyte(6, 0);                              
    1768; 174 |                 // perhaps PRU2ARM_INTERRUPT now active,               
    1769; 175 |                 // assert SSYN after ARM completes "active" register lo
    1770;     | gic and INIT                                                           
    1771; 176 |                 while (mailbox.events.eventmask) ;                     
    1772; 178 |                 buslatches_setbits(4, BIT(5), 0); // slave deassert SSY
    1773;     | N                                                                      
    1774; 179 |                 sm_dma.state = &sm_dma_state_99; // next word          
    1775; 180 |         } else {                                                       
    1776; 181 |                 // DATO to external slave                              
    1777; 182 |                 // wait for a slave SSYN                               
    1778; 183 |                 TIMEOUT_SET(NANOSECS(1000*UNIBUS_TIMEOUT_PERIOD_US));  
    1779; 184 |                 sm_dma.state = &sm_dma_state_21; // wait SSYN DATAO    
    1780; 186 | } else {                                                               
    1781; 187 |         // DATI or DATIP                                               
    1782; 188 |         tmpval = (addr >> 16) & 3;                                     
    1783; 189 |         // bit 2,3,4,5 == 0  -> C0,C1,MSYN,SSYN not asserted           
    1784;----------------------------------------------------------------------
    1785 000000bc 000000D101267E          QBBS      ||$C$L17||, r6.b1, 0x01 ; [ALU_PRU] |129| control
    1786;* --------------------------------------------------------------------------*
    1787;*** 190        -----------------------    _tmpval = C$14 = (unsigned char)(*K$22&0xc0u|addr>>16&3u);
    1788;*** 190        -----------------------    buslatches_pru0_dataout((unsigned)C$14);
    1789;*** 190        -----------------------    __R30 = 1024u;
    1790;*** 190        -----------------------    *K$22 = _tmpval;
    1791;*** 190        -----------------------    __delay_cycles(4u);
    1792;*** 190        -----------------------    __R30 = 3072u;
PRU Assembler Unix v2.3.1 Sun Mar 31 20:55:35 2019

Tools Copyright (c) 2012-2017 Texas Instruments Incorporated
pru1_statemachine_dma.asm                                            PAGE   34

    1793;*** 193        -----------------------    __delay_cycles(20u);
    1794;*** 202        -----------------------    _tmpval = C$13 = (unsigned char)(*K$22|0x10);
    1795;*** 202        -----------------------    buslatches_pru0_dataout((unsigned)C$13);
    1796;*** 202        -----------------------    __R30 = 1024u;
    1797;*** 202        -----------------------    *K$22 = _tmpval;
    1798;*** 202        -----------------------    __delay_cycles(4u);
    1799;*** 202        -----------------------    __R30 = 3072u;
    1800;*** 204        -----------------------    if ( iopageregisters_read(addr, &data) ) goto g9;
    1801        .dwpsn  file "pru1_statemachine_dma.c",line 190,column 3,is_stmt,isa 0
    1802;----------------------------------------------------------------------
    1803; 190 | buslatches_setbits(4, 0x3f, tmpval);                                   
    1804; 192 | // wait 150ns after MSYN, no distance to SSYN required                 
    1805;----------------------------------------------------------------------
    1806 000000c0 000000F1000700          LBBO      &r0.b0, r7, 0, 1      ; [ALU_PRU] |190| $O$K22
    1807 000000c4 00000011C00020          AND       r0.b1, r0.b0, 0xc0    ; [ALU_PRU] |190| 
    1808 000000c8 00000011034900          AND       r0.b0, r9.b2, 0x03    ; [ALU_PRU] |190| 
    1809 000000cc 00000012002006          OR        r6.b0, r0.b1, r0.b0   ; [ALU_PRU] |190| $O$C14
    1810 000000d0 000000100606EE          MOV       r14, r6.b0            ; [ALU_PRU] |190| $O$C14
    1811$C$DW$102       .dwtag  DW_TAG_TI_branch
    1812        .dwattr $C$DW$102, DW_AT_low_pc(0x00)
    1813        .dwattr $C$DW$102, DW_AT_name("buslatches_pru0_dataout")
    1814        .dwattr $C$DW$102, DW_AT_TI_call
    1815
    1816 000000d4 000000230000C3!         JAL       r3.w2, ||buslatches_pru0_dataout|| ; [ALU_PRU] |190| buslatches_pru0_dataout
    1817 000000d8 000000240400FE          LDI       r30, 0x0400           ; [ALU_PRU] |190| 
    1818 000000dc 000000E1000706          SBBO      &r6.b0, r7, 0, 1      ; [ALU_PRU] |190| $O$K22,_tmpval
    1819        .newblock
    1820 000000e0 00018C240000CC          LDI32    r12, 1
         000000e7 00000000004024 
    1821 000000e8 0000000501ECEC  $1:     SUB      r12, r12, 1
    1822 000000ec 0000006F00ECFF          QBNE     $1, r12, 0            ; [ALU_PRU] |190| 
    1823 000000f0 000000240C00FE          LDI       r30, 0x0c00           ; [ALU_PRU] |190| 
    1824        .dwpsn  file "pru1_statemachine_dma.c",line 193,column 3,is_stmt,isa 0
    1825;----------------------------------------------------------------------
    1826; 193 | __delay_cycles(NANOSECS(150) - 10);                                    
    1827; 194 | // assume 10 cycles for buslatches_get and address test                
    1828; 195 | // ADDR, CONTROL (and DATA) stable since 150ns, set MSYN next          
    1829; 197 | // use 150ns delay to check for internal address                       
    1830; 198 | // page_table_entry = PAGE_TABLE_ENTRY(deviceregisters,addr);          
    1831; 199 | // !!! optimizer may not move this around !!!                          
    1832; 201 | // MSYN = latch[4], bit 4                                              
    1833;----------------------------------------------------------------------
    1834        .newblock
    1835 000000f4 00098B240000CB          LDI32    r11, 9
         000000fb 00000000004024 
    1836 000000fc 0000000501EBEB  $1:     SUB      r11, r11, 1
    1837 00000100 0000006F00EBFF          QBNE     $1, r11, 0            ; [ALU_PRU] |193| 
    1838        .dwpsn  file "pru1_statemachine_dma.c",line 202,column 3,is_stmt,isa 0
    1839;----------------------------------------------------------------------
    1840; 202 | buslatches_setbits(4, BIT(4), BIT(4)); // master assert MSYN           
    1841;----------------------------------------------------------------------
    1842 00000104 000000F1000700          LBBO      &r0.b0, r7, 0, 1      ; [ALU_PRU] |202| $O$K22
    1843 00000108 0000001F040006          SET       r6.b0, r0.b0, 0x00000004 ; [ALU_PRU] |202| $O$C13
    1844 0000010c 000000100606EE          MOV       r14, r6.b0            ; [ALU_PRU] |202| $O$C13
    1845$C$DW$103       .dwtag  DW_TAG_TI_branch
PRU Assembler Unix v2.3.1 Sun Mar 31 20:55:35 2019

Tools Copyright (c) 2012-2017 Texas Instruments Incorporated
pru1_statemachine_dma.asm                                            PAGE   35

    1846        .dwattr $C$DW$103, DW_AT_low_pc(0x00)
    1847        .dwattr $C$DW$103, DW_AT_name("buslatches_pru0_dataout")
    1848        .dwattr $C$DW$103, DW_AT_TI_call
    1849
    1850 00000110 000000230000C3!         JAL       r3.w2, ||buslatches_pru0_dataout|| ; [ALU_PRU] |202| buslatches_pru0_dataout
    1851 00000114 000000E1000706          SBBO      &r6.b0, r7, 0, 1      ; [ALU_PRU] |202| $O$K22,_tmpval
    1852 00000118 000000240400FE          LDI       r30, 0x0400           ; [ALU_PRU] |202| 
    1853        .newblock
    1854 0000011c 00018A240000CA          LDI32    r10, 1
         00000123 00000000004024 
    1855 00000124 0000000501EAEA  $1:     SUB      r10, r10, 1
    1856 00000128 0000006F00EAFF          QBNE     $1, r10, 0            ; [ALU_PRU] |202| 
    1857        .dwpsn  file "pru1_statemachine_dma.c",line 204,column 3,is_stmt,isa 0
    1858;----------------------------------------------------------------------
    1859; 204 | if (iopageregisters_read(addr, &data)) {                               
    1860;----------------------------------------------------------------------
    1861 0000012c 00000010E9E9EE          MOV       r14, r9               ; [ALU_PRU] |204| addr
    1862 00000130 0000000100E2EF          ADD       r15, r2, 0            ; [ALU_PRU] |204| data,data
    1863        .dwpsn  file "pru1_statemachine_dma.c",line 202,column 3,is_stmt,isa 0
    1864 00000134 000000240C00FE          LDI       r30, 0x0c00           ; [ALU_PRU] |202| 
    1865        .dwpsn  file "pru1_statemachine_dma.c",line 204,column 3,is_stmt,isa 0
    1866;----------------------------------------------------------------------
    1867; 205 | // DATI to internal slave: put MSYN/SSYN/DATA protocol onto bus,       
    1868; 206 | // slave puts data onto bus                                            
    1869; 207 | // DATA[0..7] = latch[5]                                               
    1870; 208 | buslatches_setbyte(5, data & 0xff);                                    
    1871; 209 | // DATA[8..15] = latch[6]                                              
    1872; 210 | buslatches_setbyte(6, data >> 8);                                      
    1873; 211 | // theoretically another bus member could set bits in bus addr & data .
    1874;     | ..                                                                     
    1875; 212 | // if yes, we would have to read back the bus lines                    
    1876; 213 | *sm_dma.dataptr = data;                                                
    1877; 214 | //                      mailbox.dma.words[sm_dma.cur_wordidx] = data;  
    1878; 216 | buslatches_setbits(4, BIT(5), BIT(5)); // slave assert SSYN            
    1879; 217 | buslatches_setbits(4, BIT(4), 0); // master deassert MSYN              
    1880; 218 | buslatches_setbyte(5, 0); // slave removes data                        
    1881; 219 | buslatches_setbyte(6, 0);                                              
    1882; 220 | // perhaps PRU2ARM_INTERRUPT now active,                               
    1883; 221 | // assert SSYN after ARM completes "active" register logic and INIT    
    1884; 222 | while (mailbox.events.eventmask) ;                                     
    1885; 224 | buslatches_setbits(4, BIT(5), 0); // slave deassert SSYN               
    1886; 225 | sm_dma.state = &sm_dma_state_99; // next word                          
    1887; 226 | } else {                                                               
    1888; 227 | // DATI to external slave                                              
    1889; 228 | // wait for a slave SSYN                                               
    1890;----------------------------------------------------------------------
    1891$C$DW$104       .dwtag  DW_TAG_TI_branch
    1892        .dwattr $C$DW$104, DW_AT_low_pc(0x00)
    1893        .dwattr $C$DW$104, DW_AT_name("iopageregisters_read")
    1894        .dwattr $C$DW$104, DW_AT_TI_call
    1895
    1896 00000138 000000230000C3!         JAL       r3.w2, ||iopageregisters_read|| ; [ALU_PRU] |204| iopageregisters_read
    1897 0000013c 00000069000E11          QBNE      ||$C$L15||, r14.b0, 0x00 ; [ALU_PRU] |204| 
    1898;* --------------------------------------------------------------------------*
    1899;*** 229        -----------------------    *(volatile unsigned *)(C$11 = (volatile struct $$fake26 *)0
PRU Assembler Unix v2.3.1 Sun Mar 31 20:55:35 2019

Tools Copyright (c) 2012-2017 Texas Instruments Incorporated
pru1_statemachine_dma.asm                                            PAGE   36

    1900;*** 229        -----------------------    (*(volatile struct $$fake35 *)C$11).$P$T18.CYCLE = C$12;
    1901;*** 229        -----------------------    timeout_target = 3976u;
    1902;*** 229        -----------------------    *(volatile unsigned *)C$11 |= 0x8u;
    1903;*** 230        -----------------------    (*K$16).state = &sm_dma_state_11;
    1904;*** 234        -----------------------    return 0;
    1905        .dwpsn  file "pru1_statemachine_dma.c",line 229,column 4,is_stmt,isa 0
    1906;----------------------------------------------------------------------
    1907; 229 | TIMEOUT_SET(NANOSECS(1000*UNIBUS_TIMEOUT_PERIOD_US));                  
    1908; 230 | sm_dma.state = &sm_dma_state_11; // wait SSYN DATI                     
    1909;----------------------------------------------------------------------
    1910 00000140 400080240002C0          LDI32     r0, 0x00024000        ; [ALU_PRU] |229| $O$C11
         00000147 00000000004024 
    1911 00000148 000000240000EE!         LDI       r14, ||timeout_target|| ; [ALU_PRU] |229| timeout_target
    1912 0000014c 000000F1002081          LBBO      &r1, r0, 0, 4         ; [ALU_PRU] |229| 
    1913 00000150 0000001D03E1E1          CLR       r1, r1, 0x00000003    ; [ALU_PRU] |229| 
    1914 00000154 000000E1002081          SBBO      &r1, r0, 0, 4         ; [ALU_PRU] |229| 
    1915 00000158 000000E10C2085          SBBO      &r5, r0, 12, 4        ; [ALU_PRU] |229| $O$C11,$O$C12
    1916 0000015c 000000240F88E1          LDI       r1, 0x0f88            ; [ALU_PRU] |229| 
    1917 00000160 000000E1002E81          SBBO      &r1, r14, 0, 4        ; [ALU_PRU] |229| 
    1918        .dwpsn  file "pru1_statemachine_dma.c",line 234,column 2,is_stmt,isa 0
    1919;----------------------------------------------------------------------
    1920; 234 | return 0; // still running                                             
    1921;----------------------------------------------------------------------
    1922 00000164 0000002400000E          LDI       r14.b0, 0x00          ; [ALU_PRU] |234| 
    1923        .dwpsn  file "pru1_statemachine_dma.c",line 229,column 4,is_stmt,isa 0
    1924 00000168 000000F1002081          LBBO      &r1, r0, 0, 4         ; [ALU_PRU] |229| $O$C11
    1925 0000016c 0000001F03E1E1          SET       r1, r1, 0x00000003    ; [ALU_PRU] |229| 
    1926 00000170 000000E1002081          SBBO      &r1, r0, 0, 4         ; [ALU_PRU] |229| $O$C11
    1927        .dwpsn  file "pru1_statemachine_dma.c",line 230,column 4,is_stmt,isa 0
    1928 00000174 00000024000080!         LDI       r0.w0, $CODE(||sm_dma_state_11||) ; [ALU_PRU] |230| sm_dma_state_11
    1929 00000178 000000E1000880          SBBO      &r0.w0, r8, 0, 2      ; [ALU_PRU] |230| $O$K16
    1930        .dwpsn  file "pru1_statemachine_dma.c",line 234,column 2,is_stmt,isa 0
    1931 0000017c 00000021000000!         JMP       ||$C$L26||            ; [ALU_PRU] |234| 
    1932;* --------------------------------------------------------------------------*
    1933 00000180                 ||$C$L15||:    
    1934;***    -----------------------g9:
    1935;*** 208        -----------------------    buslatches_pru0_dataout(data&0xffu);
    1936;*** 208        -----------------------    __R30 = 1280u;
    1937;*** 208        -----------------------    __delay_cycles(6u);
    1938;*** 208        -----------------------    __R30 = 3328u;
    1939;*** 210        -----------------------    buslatches_pru0_dataout((int)data>>8);
    1940;*** 210        -----------------------    __R30 = 1536u;
    1941;*** 210        -----------------------    __delay_cycles(6u);
    1942;*** 210        -----------------------    __R30 = 3584u;
    1943;*** 213        -----------------------    *(*K$16).dataptr = data;
    1944;*** 216        -----------------------    _tmpval = C$10 = (unsigned char)(*K$22|0x20);
    1945;*** 216        -----------------------    buslatches_pru0_dataout((unsigned)C$10);
    1946;*** 216        -----------------------    __R30 = 1024u;
    1947;*** 216        -----------------------    *K$22 = _tmpval;
    1948;*** 216        -----------------------    __delay_cycles(4u);
    1949;*** 216        -----------------------    __R30 = 3072u;
    1950;*** 217        -----------------------    _tmpval = C$9 = (unsigned char)(*K$22&0xef);
    1951;*** 217        -----------------------    buslatches_pru0_dataout((unsigned)C$9);
    1952;*** 217        -----------------------    __R30 = 1024u;
    1953;*** 217        -----------------------    *K$22 = _tmpval;
PRU Assembler Unix v2.3.1 Sun Mar 31 20:55:35 2019

Tools Copyright (c) 2012-2017 Texas Instruments Incorporated
pru1_statemachine_dma.asm                                            PAGE   37

    1954;*** 217        -----------------------    __delay_cycles(4u);
    1955;*** 217        -----------------------    __R30 = 3072u;
    1956;*** 218        -----------------------    buslatches_pru0_dataout(0u);
    1957;*** 218        -----------------------    __R30 = 1280u;
    1958;*** 218        -----------------------    __delay_cycles(6u);
    1959;*** 218        -----------------------    __R30 = 3328u;
    1960;*** 219        -----------------------    buslatches_pru0_dataout(0u);
    1961;*** 219        -----------------------    __R30 = 1536u;
    1962;*** 219        -----------------------    __delay_cycles(6u);
    1963;*** 219        -----------------------    __R30 = 3584u;
    1964;***    -----------------------    #pragma LOOP_FLAGS(4096u)
    1965        .dwpsn  file "pru1_statemachine_dma.c",line 208,column 4,is_stmt,isa 0
    1966 00000180 000000F1000280          LBBO      &r0.w0, r2, 0, 2      ; [ALU_PRU] |208| data
    1967 00000184 00000011FF80EE          AND       r14, r0.w0, 0xff      ; [ALU_PRU] |208| 
    1968$C$DW$105       .dwtag  DW_TAG_TI_branch
    1969        .dwattr $C$DW$105, DW_AT_low_pc(0x00)
    1970        .dwattr $C$DW$105, DW_AT_name("buslatches_pru0_dataout")
    1971        .dwattr $C$DW$105, DW_AT_TI_call
    1972
    1973 00000188 000000230000C3!         JAL       r3.w2, ||buslatches_pru0_dataout|| ; [ALU_PRU] |208| buslatches_pru0_dataout
    1974 0000018c 000000240500FE          LDI       r30, 0x0500           ; [ALU_PRU] |208| 
    1975        .newblock
    1976 00000190 00028C240000CC          LDI32    r12, 2
         00000197 00000000004024 
    1977 00000198 0000000501ECEC  $1:     SUB      r12, r12, 1
    1978 0000019c 0000006F00ECFF          QBNE     $1, r12, 0            ; [ALU_PRU] |208| 
    1979        .dwpsn  file "pru1_statemachine_dma.c",line 210,column 4,is_stmt,isa 0
    1980 000001a0 000000F1000280          LBBO      &r0.w0, r2, 0, 2      ; [ALU_PRU] |210| data
    1981        .dwpsn  file "pru1_statemachine_dma.c",line 208,column 4,is_stmt,isa 0
    1982 000001a4 000000240D00FE          LDI       r30, 0x0d00           ; [ALU_PRU] |208| 
    1983        .dwpsn  file "pru1_statemachine_dma.c",line 210,column 4,is_stmt,isa 0
    1984 000001a8 000000108080E0          MOV       r0, r0.w0             ; [ALU_PRU] |210| 
    1985 000001ac 0000000B08E0EE          LSR       r14, r0, 0x08         ; [ALU_PRU] |210| 
    1986$C$DW$106       .dwtag  DW_TAG_TI_branch
    1987        .dwattr $C$DW$106, DW_AT_low_pc(0x00)
    1988        .dwattr $C$DW$106, DW_AT_name("buslatches_pru0_dataout")
    1989        .dwattr $C$DW$106, DW_AT_TI_call
    1990
    1991 000001b0 000000230000C3!         JAL       r3.w2, ||buslatches_pru0_dataout|| ; [ALU_PRU] |210| buslatches_pru0_dataout
    1992 000001b4 000000240600FE          LDI       r30, 0x0600           ; [ALU_PRU] |210| 
    1993        .newblock
    1994 000001b8 000286240000C6          LDI32    r6, 2
         000001bf 00000000004024 
    1995 000001c0 0000000501E6E6  $1:     SUB      r6, r6, 1
    1996 000001c4 0000006F00E6FF          QBNE     $1, r6, 0             ; [ALU_PRU] |210| 
    1997        .dwpsn  file "pru1_statemachine_dma.c",line 213,column 4,is_stmt,isa 0
    1998 000001c8 000000F1000280          LBBO      &r0.w0, r2, 0, 2      ; [ALU_PRU] |213| data
    1999 000001cc 000000F1032881          LBBO      &r1, r8, 3, 4         ; [ALU_PRU] |213| $O$K16
    2000        .dwpsn  file "pru1_statemachine_dma.c",line 210,column 4,is_stmt,isa 0
    2001 000001d0 000000240E00FE          LDI       r30, 0x0e00           ; [ALU_PRU] |210| 
    2002        .dwpsn  file "pru1_statemachine_dma.c",line 213,column 4,is_stmt,isa 0
    2003 000001d4 000000E1000180          SBBO      &r0.w0, r1, 0, 2      ; [ALU_PRU] |213| 
    2004        .dwpsn  file "pru1_statemachine_dma.c",line 216,column 4,is_stmt,isa 0
    2005 000001d8 000000F1000700          LBBO      &r0.b0, r7, 0, 1      ; [ALU_PRU] |216| $O$K22
    2006 000001dc 0000001F050006          SET       r6.b0, r0.b0, 0x00000005 ; [ALU_PRU] |216| $O$C10
PRU Assembler Unix v2.3.1 Sun Mar 31 20:55:35 2019

Tools Copyright (c) 2012-2017 Texas Instruments Incorporated
pru1_statemachine_dma.asm                                            PAGE   38

    2007 000001e0 000000100606EE          MOV       r14, r6.b0            ; [ALU_PRU] |216| $O$C10
    2008$C$DW$107       .dwtag  DW_TAG_TI_branch
    2009        .dwattr $C$DW$107, DW_AT_low_pc(0x00)
    2010        .dwattr $C$DW$107, DW_AT_name("buslatches_pru0_dataout")
    2011        .dwattr $C$DW$107, DW_AT_TI_call
    2012
    2013 000001e4 000000230000C3!         JAL       r3.w2, ||buslatches_pru0_dataout|| ; [ALU_PRU] |216| buslatches_pru0_dataout
    2014 000001e8 000000E1000706          SBBO      &r6.b0, r7, 0, 1      ; [ALU_PRU] |216| $O$K22,_tmpval
    2015 000001ec 000000240400FE          LDI       r30, 0x0400           ; [ALU_PRU] |216| 
    2016        .newblock
    2017 000001f0 00018B240000CB          LDI32    r11, 1
         000001f7 00000000004024 
    2018 000001f8 0000000501EBEB  $1:     SUB      r11, r11, 1
    2019 000001fc 0000006F00EBFF          QBNE     $1, r11, 0            ; [ALU_PRU] |216| 
    2020        .dwpsn  file "pru1_statemachine_dma.c",line 217,column 4,is_stmt,isa 0
    2021 00000200 000000F1000700          LBBO      &r0.b0, r7, 0, 1      ; [ALU_PRU] |217| $O$K22
    2022        .dwpsn  file "pru1_statemachine_dma.c",line 216,column 4,is_stmt,isa 0
    2023 00000204 000000240C00FE          LDI       r30, 0x0c00           ; [ALU_PRU] |216| 
    2024        .dwpsn  file "pru1_statemachine_dma.c",line 217,column 4,is_stmt,isa 0
    2025 00000208 00000011EF0006          AND       r6.b0, r0.b0, 0xef    ; [ALU_PRU] |217| $O$C9
    2026 0000020c 000000100606EE          MOV       r14, r6.b0            ; [ALU_PRU] |217| $O$C9
    2027$C$DW$108       .dwtag  DW_TAG_TI_branch
    2028        .dwattr $C$DW$108, DW_AT_low_pc(0x00)
    2029        .dwattr $C$DW$108, DW_AT_name("buslatches_pru0_dataout")
    2030        .dwattr $C$DW$108, DW_AT_TI_call
    2031
    2032 00000210 000000230000C3!         JAL       r3.w2, ||buslatches_pru0_dataout|| ; [ALU_PRU] |217| buslatches_pru0_dataout
    2033 00000214 000000E1000706          SBBO      &r6.b0, r7, 0, 1      ; [ALU_PRU] |217| $O$K22,_tmpval
    2034 00000218 000000240400FE          LDI       r30, 0x0400           ; [ALU_PRU] |217| 
    2035        .newblock
    2036 0000021c 00018A240000CA          LDI32    r10, 1
         00000223 00000000004024 
    2037 00000224 0000000501EAEA  $1:     SUB      r10, r10, 1
    2038 00000228 0000006F00EAFF          QBNE     $1, r10, 0            ; [ALU_PRU] |217| 
    2039 0000022c 00000010E5E5EE          MOV       r14, r5               ; [ALU_PRU] 
    2040 00000230 000000240C00FE          LDI       r30, 0x0c00           ; [ALU_PRU] |217| 
    2041        .dwpsn  file "pru1_statemachine_dma.c",line 218,column 4,is_stmt,isa 0
    2042$C$DW$109       .dwtag  DW_TAG_TI_branch
    2043        .dwattr $C$DW$109, DW_AT_low_pc(0x00)
    2044        .dwattr $C$DW$109, DW_AT_name("buslatches_pru0_dataout")
    2045        .dwattr $C$DW$109, DW_AT_TI_call
    2046
    2047 00000234 000000230000C3!         JAL       r3.w2, ||buslatches_pru0_dataout|| ; [ALU_PRU] |218| buslatches_pru0_dataout
    2048 00000238 000000240500FE          LDI       r30, 0x0500           ; [ALU_PRU] |218| 
    2049        .newblock
    2050 0000023c 000289240000C9          LDI32    r9, 2
         00000243 00000000004024 
    2051 00000244 0000000501E9E9  $1:     SUB      r9, r9, 1
    2052 00000248 0000006F00E9FF          QBNE     $1, r9, 0             ; [ALU_PRU] |218| 
    2053 0000024c 00000010E5E5EE          MOV       r14, r5               ; [ALU_PRU] 
    2054 00000250 000000240D00FE          LDI       r30, 0x0d00           ; [ALU_PRU] |218| 
    2055        .dwpsn  file "pru1_statemachine_dma.c",line 219,column 4,is_stmt,isa 0
    2056$C$DW$110       .dwtag  DW_TAG_TI_branch
    2057        .dwattr $C$DW$110, DW_AT_low_pc(0x00)
    2058        .dwattr $C$DW$110, DW_AT_name("buslatches_pru0_dataout")
PRU Assembler Unix v2.3.1 Sun Mar 31 20:55:35 2019

Tools Copyright (c) 2012-2017 Texas Instruments Incorporated
pru1_statemachine_dma.asm                                            PAGE   39

    2059        .dwattr $C$DW$110, DW_AT_TI_call
    2060
    2061 00000254 000000230000C3!         JAL       r3.w2, ||buslatches_pru0_dataout|| ; [ALU_PRU] |219| buslatches_pru0_dataout
    2062 00000258 000000240600FE          LDI       r30, 0x0600           ; [ALU_PRU] |219| 
    2063        .newblock
    2064 0000025c 000285240000C5          LDI32    r5, 2
         00000263 00000000004024 
    2065 00000264 0000000501E5E5  $1:     SUB      r5, r5, 1
    2066 00000268 0000006F00E5FF          QBNE     $1, r5, 0             ; [ALU_PRU] |219| 
    2067 0000026c 000000240E00FE          LDI       r30, 0x0e00           ; [ALU_PRU] |219| 
    2068;* --------------------------------------------------------------------------*
    2069;*   BEGIN LOOP ||$C$L16||
    2070;*
    2071;*   Loop source line                : 208
    2072;*   Loop closing brace source line  : 208
    2073;*   Known Minimum Trip Count        : 1
    2074;*   Known Maximum Trip Count        : 4294967295
    2075;*   Known Max Trip Count Factor     : 1
    2076;* --------------------------------------------------------------------------*
    2077 00000270                 ||$C$L16||:    
    2078;***    -----------------------g10:
    2079;*** 222        -----------------------    if ( (*K$3).events.eventmask ) goto g10;
    2080        .dwpsn  file "pru1_statemachine_dma.c",line 222,column 4,is_stmt,isa 0
    2081 00000270 000000F10C0400          LBBO      &r0.b0, r4, 12, 1     ; [ALU_PRU] |222| $O$K3
    2082 00000274 0000006F0000FF          QBNE      ||$C$L16||, r0.b0, 0x00 ; [ALU_PRU] |222| 
    2083;* --------------------------------------------------------------------------*
    2084;*** 224        -----------------------    _tmpval = C$8 = (unsigned char)(*K$22&0xdf);
    2085;*** 224        -----------------------    buslatches_pru0_dataout((unsigned)C$8);
    2086;*** 224        -----------------------    __R30 = 1024u;
    2087;*** 224        -----------------------    *K$22 = _tmpval;
    2088;*** 224        -----------------------    __delay_cycles(4u);
    2089;*** 224        -----------------------    __R30 = 3072u;
    2090;*** 225        -----------------------    (*K$16).state = &sm_dma_state_99;
    2091;*** 234        -----------------------    return 0;
    2092        .dwpsn  file "pru1_statemachine_dma.c",line 224,column 4,is_stmt,isa 0
    2093 00000278 000000F1000700          LBBO      &r0.b0, r7, 0, 1      ; [ALU_PRU] |224| $O$K22
    2094 0000027c 00000011DF0004          AND       r4.b0, r0.b0, 0xdf    ; [ALU_PRU] |224| $O$C8
    2095 00000280 000000100404EE          MOV       r14, r4.b0            ; [ALU_PRU] |224| $O$C8
    2096$C$DW$111       .dwtag  DW_TAG_TI_branch
    2097        .dwattr $C$DW$111, DW_AT_low_pc(0x00)
    2098        .dwattr $C$DW$111, DW_AT_name("buslatches_pru0_dataout")
    2099        .dwattr $C$DW$111, DW_AT_TI_call
    2100
    2101 00000284 000000230000C3!         JAL       r3.w2, ||buslatches_pru0_dataout|| ; [ALU_PRU] |224| buslatches_pru0_dataout
    2102 00000288 000000240400FE          LDI       r30, 0x0400           ; [ALU_PRU] |224| 
    2103 0000028c 000000E1000704          SBBO      &r4.b0, r7, 0, 1      ; [ALU_PRU] |224| $O$K22,_tmpval
    2104        .newblock
    2105 00000290 000185240000C5          LDI32    r5, 1
         00000297 00000000004024 
    2106 00000298 0000000501E5E5  $1:     SUB      r5, r5, 1
    2107 0000029c 0000006F00E5FF          QBNE     $1, r5, 0             ; [ALU_PRU] |224| 
    2108        .dwpsn  file "pru1_statemachine_dma.c",line 225,column 4,is_stmt,isa 0
    2109 000002a0 00000024000080!         LDI       r0.w0, $CODE(||sm_dma_state_99||) ; [ALU_PRU] |225| sm_dma_state_99
    2110        .dwpsn  file "pru1_statemachine_dma.c",line 234,column 2,is_stmt,isa 0
    2111 000002a4 0000002400000E          LDI       r14.b0, 0x00          ; [ALU_PRU] |234| 
PRU Assembler Unix v2.3.1 Sun Mar 31 20:55:35 2019

Tools Copyright (c) 2012-2017 Texas Instruments Incorporated
pru1_statemachine_dma.asm                                            PAGE   40

    2112        .dwpsn  file "pru1_statemachine_dma.c",line 224,column 4,is_stmt,isa 0
    2113 000002a8 000000240C00FE          LDI       r30, 0x0c00           ; [ALU_PRU] |224| 
    2114        .dwpsn  file "pru1_statemachine_dma.c",line 225,column 4,is_stmt,isa 0
    2115 000002ac 000000E1000880          SBBO      &r0.w0, r8, 0, 2      ; [ALU_PRU] |225| $O$K16
    2116        .dwpsn  file "pru1_statemachine_dma.c",line 234,column 2,is_stmt,isa 0
    2117 000002b0 00000021000000!         JMP       ||$C$L26||            ; [ALU_PRU] |234| 
    2118;* --------------------------------------------------------------------------*
    2119 000002b4                 ||$C$L17||:    
    2120;***    -----------------------g12:
    2121;*** 130        -----------------------    tmpval = addr>>16&3u;
    2122;*** 133        -----------------------    _tmpval = C$7 = (unsigned char)(*K$22&0xc0u|(tmpval |= 0x8u
    2123;*** 133        -----------------------    buslatches_pru0_dataout((unsigned)C$7);
    2124;*** 133        -----------------------    __R30 = 1024u;
    2125;*** 133        -----------------------    *K$22 = _tmpval;
    2126;*** 133        -----------------------    __delay_cycles(4u);
    2127;*** 133        -----------------------    __R30 = 3072u;
    2128;*** 136        -----------------------    data = C$6 = *(*K$16).dataptr;
    2129;*** 137        -----------------------    buslatches_pru0_dataout(C$6&0xffu);
    2130;*** 137        -----------------------    __R30 = 1280u;
    2131;*** 137        -----------------------    __delay_cycles(6u);
    2132;*** 137        -----------------------    __R30 = 3328u;
    2133;*** 138        -----------------------    buslatches_pru0_dataout((int)data>>8);
    2134;*** 138        -----------------------    __R30 = 1536u;
    2135;*** 138        -----------------------    __delay_cycles(6u);
    2136;*** 138        -----------------------    __R30 = 3584u;
    2137;***    -----------------------    #pragma LOOP_FLAGS(5120u)
    2138        .dwpsn  file "pru1_statemachine_dma.c",line 130,column 3,is_stmt,isa 0
    2139 000002b4 0000000B10E9E0          LSR       r0, r9, 0x10          ; [ALU_PRU] |130| addr
    2140 000002b8 0000001103E0E0          AND       r0, r0, 0x03          ; [ALU_PRU] |130| tmpval
    2141        .dwpsn  file "pru1_statemachine_dma.c",line 133,column 3,is_stmt,isa 0
    2142 000002bc 0000001F03E0E0          SET       r0, r0, 0x00000003    ; [ALU_PRU] |133| tmpval,tmpval
    2143 000002c0 000000F1000720          LBBO      &r0.b1, r7, 0, 1      ; [ALU_PRU] |133| $O$K22
    2144 000002c4 000000113F0000          AND       r0.b0, r0.b0, 0x3f    ; [ALU_PRU] |133| 
    2145 000002c8 00000011C02020          AND       r0.b1, r0.b1, 0xc0    ; [ALU_PRU] |133| 
    2146 000002cc 00000012002006          OR        r6.b0, r0.b1, r0.b0   ; [ALU_PRU] |133| $O$C7
    2147 000002d0 000000100606EE          MOV       r14, r6.b0            ; [ALU_PRU] |133| $O$C7
    2148$C$DW$112       .dwtag  DW_TAG_TI_branch
    2149        .dwattr $C$DW$112, DW_AT_low_pc(0x00)
    2150        .dwattr $C$DW$112, DW_AT_name("buslatches_pru0_dataout")
    2151        .dwattr $C$DW$112, DW_AT_TI_call
    2152
    2153 000002d4 000000230000C3!         JAL       r3.w2, ||buslatches_pru0_dataout|| ; [ALU_PRU] |133| buslatches_pru0_dataout
    2154 000002d8 000000240400FE          LDI       r30, 0x0400           ; [ALU_PRU] |133| 
    2155 000002dc 000000E1000706          SBBO      &r6.b0, r7, 0, 1      ; [ALU_PRU] |133| $O$K22,_tmpval
    2156        .newblock
    2157 000002e0 00018C240000CC          LDI32    r12, 1
         000002e7 00000000004024 
    2158 000002e8 0000000501ECEC  $1:     SUB      r12, r12, 1
    2159 000002ec 0000006F00ECFF          QBNE     $1, r12, 0            ; [ALU_PRU] |133| 
    2160        .dwpsn  file "pru1_statemachine_dma.c",line 136,column 3,is_stmt,isa 0
    2161 000002f0 000000F1032880          LBBO      &r0, r8, 3, 4         ; [ALU_PRU] |136| $O$K16
    2162        .dwpsn  file "pru1_statemachine_dma.c",line 133,column 3,is_stmt,isa 0
    2163 000002f4 000000240C00FE          LDI       r30, 0x0c00           ; [ALU_PRU] |133| 
    2164        .dwpsn  file "pru1_statemachine_dma.c",line 136,column 3,is_stmt,isa 0
    2165 000002f8 000000F1000080          LBBO      &r0.w0, r0, 0, 2      ; [ALU_PRU] |136| $O$C6
PRU Assembler Unix v2.3.1 Sun Mar 31 20:55:35 2019

Tools Copyright (c) 2012-2017 Texas Instruments Incorporated
pru1_statemachine_dma.asm                                            PAGE   41

    2166 000002fc 000000E1000280          SBBO      &r0.w0, r2, 0, 2      ; [ALU_PRU] |136| data,$O$C6
    2167        .dwpsn  file "pru1_statemachine_dma.c",line 137,column 3,is_stmt,isa 0
    2168 00000300 00000011FF80EE          AND       r14, r0.w0, 0xff      ; [ALU_PRU] |137| $O$C6
    2169$C$DW$113       .dwtag  DW_TAG_TI_branch
    2170        .dwattr $C$DW$113, DW_AT_low_pc(0x00)
    2171        .dwattr $C$DW$113, DW_AT_name("buslatches_pru0_dataout")
    2172        .dwattr $C$DW$113, DW_AT_TI_call
    2173
    2174 00000304 000000230000C3!         JAL       r3.w2, ||buslatches_pru0_dataout|| ; [ALU_PRU] |137| buslatches_pru0_dataout
    2175 00000308 000000240500FE          LDI       r30, 0x0500           ; [ALU_PRU] |137| 
    2176        .newblock
    2177 0000030c 00028B240000CB          LDI32    r11, 2
         00000313 00000000004024 
    2178 00000314 0000000501EBEB  $1:     SUB      r11, r11, 1
    2179 00000318 0000006F00EBFF          QBNE     $1, r11, 0            ; [ALU_PRU] |137| 
    2180        .dwpsn  file "pru1_statemachine_dma.c",line 138,column 3,is_stmt,isa 0
    2181 0000031c 000000F1000280          LBBO      &r0.w0, r2, 0, 2      ; [ALU_PRU] |138| data
    2182        .dwpsn  file "pru1_statemachine_dma.c",line 137,column 3,is_stmt,isa 0
    2183 00000320 000000240D00FE          LDI       r30, 0x0d00           ; [ALU_PRU] |137| 
    2184        .dwpsn  file "pru1_statemachine_dma.c",line 138,column 3,is_stmt,isa 0
    2185 00000324 000000108080E0          MOV       r0, r0.w0             ; [ALU_PRU] |138| 
    2186 00000328 0000000B08E0EE          LSR       r14, r0, 0x08         ; [ALU_PRU] |138| 
    2187$C$DW$114       .dwtag  DW_TAG_TI_branch
    2188        .dwattr $C$DW$114, DW_AT_low_pc(0x00)
    2189        .dwattr $C$DW$114, DW_AT_name("buslatches_pru0_dataout")
    2190        .dwattr $C$DW$114, DW_AT_TI_call
    2191
    2192 0000032c 000000230000C3!         JAL       r3.w2, ||buslatches_pru0_dataout|| ; [ALU_PRU] |138| buslatches_pru0_dataout
    2193 00000330 000000240600FE          LDI       r30, 0x0600           ; [ALU_PRU] |138| 
    2194        .newblock
    2195 00000334 00028A240000CA          LDI32    r10, 2
         0000033b 00000000004024 
    2196 0000033c 0000000501EAEA  $1:     SUB      r10, r10, 1
    2197 00000340 0000006F00EAFF          QBNE     $1, r10, 0            ; [ALU_PRU] |138| 
    2198 00000344 000000240E00FE          LDI       r30, 0x0e00           ; [ALU_PRU] |138| 
    2199;* --------------------------------------------------------------------------*
    2200;*   BEGIN LOOP ||$C$L18||
    2201;*
    2202;*   Loop source line                : 133
    2203;*   Loop closing brace source line  : 133
    2204;*   Known Minimum Trip Count        : 1
    2205;*   Known Maximum Trip Count        : 4294967295
    2206;*   Known Max Trip Count Factor     : 1
    2207;* --------------------------------------------------------------------------*
    2208 00000348                 ||$C$L18||:    
    2209;***    -----------------------g13:
    2210;*** 141        -----------------------    __R30 = 3072u;
    2211;*** 141        -----------------------    __delay_cycles(10u);
    2212;*** 141        -----------------------    if ( __R31&0x20 ) goto g13;
    2213        .dwpsn  file "pru1_statemachine_dma.c",line 141,column 3,is_stmt,isa 0
    2214 00000348 000000240C00FE          LDI       r30, 0x0c00           ; [ALU_PRU] |141| 
    2215        .newblock
    2216 0000034c 000480240000C0          LDI32    r0, 4
         00000353 00000000004024 
    2217 00000354 0000000501E0E0  $1:     SUB      r0, r0, 1
PRU Assembler Unix v2.3.1 Sun Mar 31 20:55:35 2019

Tools Copyright (c) 2012-2017 Texas Instruments Incorporated
pru1_statemachine_dma.asm                                            PAGE   42

    2218 00000358 0000006F00E0FF          QBNE     $1, r0, 0             ; [ALU_PRU] |141| 
    2219 0000035c 000000D705FFFB          QBBS      ||$C$L18||, r31, 0x05 ; [ALU_PRU] |141| 
    2220;* --------------------------------------------------------------------------*
    2221;*** 143        -----------------------    __delay_cycles(20u);
    2222;*** 153        -----------------------    _tmpval = C$5 = (unsigned char)(*K$22|0x10);
    2223;*** 153        -----------------------    buslatches_pru0_dataout((unsigned)C$5);
    2224;*** 153        -----------------------    __R30 = 1024u;
    2225;*** 153        -----------------------    *K$22 = _tmpval;
    2226;*** 153        -----------------------    __delay_cycles(4u);
    2227;*** 153        -----------------------    __R30 = 3072u;
    2228;*** 157        -----------------------    switch ( control ) {case 2: goto g19;, case 3: goto g15;, D
    2229        .dwpsn  file "pru1_statemachine_dma.c",line 143,column 3,is_stmt,isa 0
    2230        .newblock
    2231 00000360 000980240000C0          LDI32    r0, 9
         00000367 00000000004024 
    2232 00000368 0000000501E0E0  $1:     SUB      r0, r0, 1
    2233 0000036c 0000006F00E0FF          QBNE     $1, r0, 0             ; [ALU_PRU] |143| 
    2234        .dwpsn  file "pru1_statemachine_dma.c",line 153,column 3,is_stmt,isa 0
    2235 00000370 000000F1000700          LBBO      &r0.b0, r7, 0, 1      ; [ALU_PRU] |153| $O$K22
    2236 00000374 0000001F040006          SET       r6.b0, r0.b0, 0x00000004 ; [ALU_PRU] |153| $O$C5
    2237 00000378 000000100606EE          MOV       r14, r6.b0            ; [ALU_PRU] |153| $O$C5
    2238$C$DW$115       .dwtag  DW_TAG_TI_branch
    2239        .dwattr $C$DW$115, DW_AT_low_pc(0x00)
    2240        .dwattr $C$DW$115, DW_AT_name("buslatches_pru0_dataout")
    2241        .dwattr $C$DW$115, DW_AT_TI_call
    2242
    2243 0000037c 000000230000C3!         JAL       r3.w2, ||buslatches_pru0_dataout|| ; [ALU_PRU] |153| buslatches_pru0_dataout
    2244 00000380 000000240400FE          LDI       r30, 0x0400           ; [ALU_PRU] |153| 
    2245 00000384 000000E1000706          SBBO      &r6.b0, r7, 0, 1      ; [ALU_PRU] |153| $O$K22,_tmpval
    2246        .newblock
    2247 00000388 00018A240000CA          LDI32    r10, 1
         0000038f 00000000004024 
    2248 00000390 0000000501EAEA  $1:     SUB      r10, r10, 1
    2249 00000394 0000006F00EAFF          QBNE     $1, r10, 0            ; [ALU_PRU] |153| 
    2250        .dwpsn  file "pru1_statemachine_dma.c",line 157,column 3,is_stmt,isa 0
    2251 00000398 000000102626E0          MOV       r0, r6.b1             ; [ALU_PRU] |157| control
    2252        .dwpsn  file "pru1_statemachine_dma.c",line 153,column 3,is_stmt,isa 0
    2253 0000039c 000000240C00FE          LDI       r30, 0x0c00           ; [ALU_PRU] |153| 
    2254        .dwpsn  file "pru1_statemachine_dma.c",line 157,column 3,is_stmt,isa 0
    2255 000003a0 0000005102E00D          QBEQ      ||$C$L22||, r0, 0x02  ; [ALU_PRU] |157| 
    2256;* --------------------------------------------------------------------------*
    2257 000003a4 0000005103E002          QBEQ      ||$C$L19||, r0, 0x03  ; [ALU_PRU] |157| 
    2258;* --------------------------------------------------------------------------*
    2259 000003a8 00000021000000!         JMP       ||$C$L23||            ; [ALU_PRU] |157| 
    2260;* --------------------------------------------------------------------------*
    2261 000003ac                 ||$C$L19||:    
    2262;***    -----------------------g15:
    2263;*** 163        -----------------------    if ( addr&1u ) goto g17;
    2264        .dwpsn  file "pru1_statemachine_dma.c",line 163,column 4,is_stmt,isa 0
    2265 000003ac 000000D100E903          QBBS      ||$C$L20||, r9, 0x00  ; [ALU_PRU] |163| addr
    2266;* --------------------------------------------------------------------------*
    2267;*** 163        -----------------------    b = data;
    2268;*** 163        -----------------------    goto g18;
    2269 000003b0 000000F100020F          LBBO      &r15.b0, r2, 0, 1     ; [ALU_PRU] |163| b,data
    2270 000003b4 00000021000000!         JMP       ||$C$L21||            ; [ALU_PRU] |163| 
PRU Assembler Unix v2.3.1 Sun Mar 31 20:55:35 2019

Tools Copyright (c) 2012-2017 Texas Instruments Incorporated
pru1_statemachine_dma.asm                                            PAGE   43

    2271;* --------------------------------------------------------------------------*
    2272 000003b8                 ||$C$L20||:    
    2273;***    -----------------------g17:
    2274;*** 163        -----------------------    b = (int)data>>8;
    2275 000003b8 000000F1000280          LBBO      &r0.w0, r2, 0, 2      ; [ALU_PRU] |163| data
    2276 000003bc 000000108080E0          MOV       r0, r0.w0             ; [ALU_PRU] |163| 
    2277 000003c0 0000001020200F          MOV       r15.b0, r0.b1         ; [ALU_PRU] |163| b
    2278;* --------------------------------------------------------------------------*
    2279 000003c4                 ||$C$L21||:    
    2280;***    -----------------------g18:
    2281;*** 164        -----------------------    if ( !iopageregisters_write_b(addr, b) ) goto g20;
    2282        .dwpsn  file "pru1_statemachine_dma.c",line 164,column 4,is_stmt,isa 0
    2283 000003c4 00000010E9E9EE          MOV       r14, r9               ; [ALU_PRU] |164| addr
    2284$C$DW$116       .dwtag  DW_TAG_TI_branch
    2285        .dwattr $C$DW$116, DW_AT_low_pc(0x00)
    2286        .dwattr $C$DW$116, DW_AT_name("iopageregisters_write_b")
    2287        .dwattr $C$DW$116, DW_AT_TI_call
    2288
    2289 000003c8 000000230000C3!         JAL       r3.w2, ||iopageregisters_write_b|| ; [ALU_PRU] |164| iopageregisters_write_b
    2290 000003cc 00000051000E06          QBEQ      ||$C$L23||, r14.b0, 0x00 ; [ALU_PRU] |164| 
    2291;* --------------------------------------------------------------------------*
    2292;*** 164        -----------------------    goto g21;
    2293 000003d0 00000021000000!         JMP       ||$C$L24||            ; [ALU_PRU] |164| 
    2294;* --------------------------------------------------------------------------*
    2295 000003d4                 ||$C$L22||:    
    2296;***    -----------------------g19:
    2297;*** 159        -----------------------    if ( iopageregisters_write_w(addr, data) ) goto g21;
    2298        .dwpsn  file "pru1_statemachine_dma.c",line 159,column 4,is_stmt,isa 0
    2299 000003d4 00000010E9E9EE          MOV       r14, r9               ; [ALU_PRU] |159| addr
    2300 000003d8 000000F100028F          LBBO      &r15.w0, r2, 0, 2     ; [ALU_PRU] |159| data
    2301$C$DW$117       .dwtag  DW_TAG_TI_branch
    2302        .dwattr $C$DW$117, DW_AT_low_pc(0x00)
    2303        .dwattr $C$DW$117, DW_AT_name("iopageregisters_write_w")
    2304        .dwattr $C$DW$117, DW_AT_TI_call
    2305
    2306 000003dc 000000230000C3!         JAL       r3.w2, ||iopageregisters_write_w|| ; [ALU_PRU] |159| iopageregisters_write_w
    2307 000003e0 00000069000E12          QBNE      ||$C$L24||, r14.b0, 0x00 ; [ALU_PRU] |159| 
    2308;* --------------------------------------------------------------------------*
    2309 000003e4                 ||$C$L23||:    
    2310;***    -----------------------g20:
    2311;*** 183        -----------------------    *(volatile unsigned *)(C$4 = (volatile struct $$fake26 *)0x
    2312;*** 183        -----------------------    (*(volatile struct $$fake35 *)C$4).$P$T18.CYCLE = 0u;
    2313;*** 183        -----------------------    timeout_target = 3976u;
    2314;*** 183        -----------------------    *(volatile unsigned *)C$4 |= 0x8u;
    2315;*** 184        -----------------------    (*K$16).state = &sm_dma_state_21;
    2316;*** 234        -----------------------    return 0;
    2317        .dwpsn  file "pru1_statemachine_dma.c",line 183,column 4,is_stmt,isa 0
    2318 000003e4 400080240002C0          LDI32     r0, 0x00024000        ; [ALU_PRU] |183| $O$C4
         000003eb 00000000004024 
    2319 000003ec 000000240000EE!         LDI       r14, ||timeout_target|| ; [ALU_PRU] |183| timeout_target
    2320 000003f0 000000F1002081          LBBO      &r1, r0, 0, 4         ; [ALU_PRU] |183| 
    2321 000003f4 0000001D03E1E1          CLR       r1, r1, 0x00000003    ; [ALU_PRU] |183| 
    2322 000003f8 000000E1002081          SBBO      &r1, r0, 0, 4         ; [ALU_PRU] |183| 
    2323 000003fc 000000240000E1          LDI       r1, 0x0000            ; [ALU_PRU] |183| 
    2324 00000400 000000E10C2081          SBBO      &r1, r0, 12, 4        ; [ALU_PRU] |183| $O$C4
PRU Assembler Unix v2.3.1 Sun Mar 31 20:55:35 2019

Tools Copyright (c) 2012-2017 Texas Instruments Incorporated
pru1_statemachine_dma.asm                                            PAGE   44

    2325 00000404 000000240F88E1          LDI       r1, 0x0f88            ; [ALU_PRU] |183| 
    2326 00000408 000000E1002E81          SBBO      &r1, r14, 0, 4        ; [ALU_PRU] |183| 
    2327        .dwpsn  file "pru1_statemachine_dma.c",line 234,column 2,is_stmt,isa 0
    2328 0000040c 0000002400000E          LDI       r14.b0, 0x00          ; [ALU_PRU] |234| 
    2329        .dwpsn  file "pru1_statemachine_dma.c",line 183,column 4,is_stmt,isa 0
    2330 00000410 000000F1002081          LBBO      &r1, r0, 0, 4         ; [ALU_PRU] |183| $O$C4
    2331 00000414 0000001F03E1E1          SET       r1, r1, 0x00000003    ; [ALU_PRU] |183| 
    2332 00000418 000000E1002081          SBBO      &r1, r0, 0, 4         ; [ALU_PRU] |183| $O$C4
    2333        .dwpsn  file "pru1_statemachine_dma.c",line 184,column 4,is_stmt,isa 0
    2334 0000041c 00000024000080!         LDI       r0.w0, $CODE(||sm_dma_state_21||) ; [ALU_PRU] |184| sm_dma_state_21
    2335 00000420 000000E1000880          SBBO      &r0.w0, r8, 0, 2      ; [ALU_PRU] |184| $O$K16
    2336        .dwpsn  file "pru1_statemachine_dma.c",line 234,column 2,is_stmt,isa 0
    2337 00000424 00000021000000!         JMP       ||$C$L26||            ; [ALU_PRU] |234| 
    2338;* --------------------------------------------------------------------------*
    2339 00000428                 ||$C$L24||:    
    2340;***    -----------------------g21:
    2341;*** 170        -----------------------    _tmpval = C$3 = (unsigned char)(*K$22|0x20);
    2342;*** 170        -----------------------    buslatches_pru0_dataout((unsigned)C$3);
    2343;*** 170        -----------------------    __R30 = 1024u;
    2344;*** 170        -----------------------    *K$22 = _tmpval;
    2345;*** 170        -----------------------    __delay_cycles(4u);
    2346;*** 170        -----------------------    __R30 = 3072u;
    2347;*** 171        -----------------------    _tmpval = C$2 = (unsigned char)(*K$22&0xef);
    2348;*** 171        -----------------------    buslatches_pru0_dataout((unsigned)C$2);
    2349;*** 171        -----------------------    __R30 = 1024u;
    2350;*** 171        -----------------------    *K$22 = _tmpval;
    2351;*** 171        -----------------------    __delay_cycles(4u);
    2352;*** 171        -----------------------    __R30 = 3072u;
    2353;*** 172        -----------------------    buslatches_pru0_dataout(0u);
    2354;*** 172        -----------------------    __R30 = 1280u;
    2355;*** 172        -----------------------    __delay_cycles(6u);
    2356;*** 172        -----------------------    __R30 = 3328u;
    2357;*** 173        -----------------------    buslatches_pru0_dataout(0u);
    2358;*** 173        -----------------------    __R30 = 1536u;
    2359;*** 173        -----------------------    __delay_cycles(6u);
    2360;*** 173        -----------------------    __R30 = 3584u;
    2361;***    -----------------------    #pragma LOOP_FLAGS(4096u)
    2362        .dwpsn  file "pru1_statemachine_dma.c",line 170,column 4,is_stmt,isa 0
    2363 00000428 000000F1000700          LBBO      &r0.b0, r7, 0, 1      ; [ALU_PRU] |170| $O$K22
    2364 0000042c 0000001F050006          SET       r6.b0, r0.b0, 0x00000005 ; [ALU_PRU] |170| $O$C3
    2365 00000430 000000100606EE          MOV       r14, r6.b0            ; [ALU_PRU] |170| $O$C3
    2366$C$DW$118       .dwtag  DW_TAG_TI_branch
    2367        .dwattr $C$DW$118, DW_AT_low_pc(0x00)
    2368        .dwattr $C$DW$118, DW_AT_name("buslatches_pru0_dataout")
    2369        .dwattr $C$DW$118, DW_AT_TI_call
    2370
    2371 00000434 000000230000C3!         JAL       r3.w2, ||buslatches_pru0_dataout|| ; [ALU_PRU] |170| buslatches_pru0_dataout
    2372 00000438 000000240400FE          LDI       r30, 0x0400           ; [ALU_PRU] |170| 
    2373 0000043c 000000E1000706          SBBO      &r6.b0, r7, 0, 1      ; [ALU_PRU] |170| $O$K22,_tmpval
    2374        .newblock
    2375 00000440 00018B240000CB          LDI32    r11, 1
         00000447 00000000004024 
    2376 00000448 0000000501EBEB  $1:     SUB      r11, r11, 1
    2377 0000044c 0000006F00EBFF          QBNE     $1, r11, 0            ; [ALU_PRU] |170| 
    2378        .dwpsn  file "pru1_statemachine_dma.c",line 171,column 4,is_stmt,isa 0
PRU Assembler Unix v2.3.1 Sun Mar 31 20:55:35 2019

Tools Copyright (c) 2012-2017 Texas Instruments Incorporated
pru1_statemachine_dma.asm                                            PAGE   45

    2379 00000450 000000F1000700          LBBO      &r0.b0, r7, 0, 1      ; [ALU_PRU] |171| $O$K22
    2380        .dwpsn  file "pru1_statemachine_dma.c",line 170,column 4,is_stmt,isa 0
    2381 00000454 000000240C00FE          LDI       r30, 0x0c00           ; [ALU_PRU] |170| 
    2382        .dwpsn  file "pru1_statemachine_dma.c",line 171,column 4,is_stmt,isa 0
    2383 00000458 00000011EF0006          AND       r6.b0, r0.b0, 0xef    ; [ALU_PRU] |171| $O$C2
    2384 0000045c 000000100606EE          MOV       r14, r6.b0            ; [ALU_PRU] |171| $O$C2
    2385$C$DW$119       .dwtag  DW_TAG_TI_branch
    2386        .dwattr $C$DW$119, DW_AT_low_pc(0x00)
    2387        .dwattr $C$DW$119, DW_AT_name("buslatches_pru0_dataout")
    2388        .dwattr $C$DW$119, DW_AT_TI_call
    2389
    2390 00000460 000000230000C3!         JAL       r3.w2, ||buslatches_pru0_dataout|| ; [ALU_PRU] |171| buslatches_pru0_dataout
    2391 00000464 000000E1000706          SBBO      &r6.b0, r7, 0, 1      ; [ALU_PRU] |171| $O$K22,_tmpval
    2392 00000468 000000240400FE          LDI       r30, 0x0400           ; [ALU_PRU] |171| 
    2393        .newblock
    2394 0000046c 00018A240000CA          LDI32    r10, 1
         00000473 00000000004024 
    2395 00000474 0000000501EAEA  $1:     SUB      r10, r10, 1
    2396 00000478 0000006F00EAFF          QBNE     $1, r10, 0            ; [ALU_PRU] |171| 
    2397 0000047c 00000010E5E5EE          MOV       r14, r5               ; [ALU_PRU] 
    2398 00000480 000000240C00FE          LDI       r30, 0x0c00           ; [ALU_PRU] |171| 
    2399        .dwpsn  file "pru1_statemachine_dma.c",line 172,column 4,is_stmt,isa 0
    2400$C$DW$120       .dwtag  DW_TAG_TI_branch
    2401        .dwattr $C$DW$120, DW_AT_low_pc(0x00)
    2402        .dwattr $C$DW$120, DW_AT_name("buslatches_pru0_dataout")
    2403        .dwattr $C$DW$120, DW_AT_TI_call
    2404
    2405 00000484 000000230000C3!         JAL       r3.w2, ||buslatches_pru0_dataout|| ; [ALU_PRU] |172| buslatches_pru0_dataout
    2406 00000488 000000240500FE          LDI       r30, 0x0500           ; [ALU_PRU] |172| 
    2407        .newblock
    2408 0000048c 000289240000C9          LDI32    r9, 2
         00000493 00000000004024 
    2409 00000494 0000000501E9E9  $1:     SUB      r9, r9, 1
    2410 00000498 0000006F00E9FF          QBNE     $1, r9, 0             ; [ALU_PRU] |172| 
    2411 0000049c 00000010E5E5EE          MOV       r14, r5               ; [ALU_PRU] 
    2412 000004a0 000000240D00FE          LDI       r30, 0x0d00           ; [ALU_PRU] |172| 
    2413        .dwpsn  file "pru1_statemachine_dma.c",line 173,column 4,is_stmt,isa 0
    2414$C$DW$121       .dwtag  DW_TAG_TI_branch
    2415        .dwattr $C$DW$121, DW_AT_low_pc(0x00)
    2416        .dwattr $C$DW$121, DW_AT_name("buslatches_pru0_dataout")
    2417        .dwattr $C$DW$121, DW_AT_TI_call
    2418
    2419 000004a4 000000230000C3!         JAL       r3.w2, ||buslatches_pru0_dataout|| ; [ALU_PRU] |173| buslatches_pru0_dataout
    2420 000004a8 000000240600FE          LDI       r30, 0x0600           ; [ALU_PRU] |173| 
    2421        .newblock
    2422 000004ac 000285240000C5          LDI32    r5, 2
         000004b3 00000000004024 
    2423 000004b4 0000000501E5E5  $1:     SUB      r5, r5, 1
    2424 000004b8 0000006F00E5FF          QBNE     $1, r5, 0             ; [ALU_PRU] |173| 
    2425 000004bc 000000240E00FE          LDI       r30, 0x0e00           ; [ALU_PRU] |173| 
    2426;* --------------------------------------------------------------------------*
    2427;*   BEGIN LOOP ||$C$L25||
    2428;*
    2429;*   Loop source line                : 170
    2430;*   Loop closing brace source line  : 170
PRU Assembler Unix v2.3.1 Sun Mar 31 20:55:35 2019

Tools Copyright (c) 2012-2017 Texas Instruments Incorporated
pru1_statemachine_dma.asm                                            PAGE   46

    2431;*   Known Minimum Trip Count        : 1
    2432;*   Known Maximum Trip Count        : 4294967295
    2433;*   Known Max Trip Count Factor     : 1
    2434;* --------------------------------------------------------------------------*
    2435 000004c0                 ||$C$L25||:    
    2436;***    -----------------------g22:
    2437;*** 176        -----------------------    if ( (*K$3).events.eventmask ) goto g22;
    2438        .dwpsn  file "pru1_statemachine_dma.c",line 176,column 4,is_stmt,isa 0
    2439 000004c0 000000F10C0400          LBBO      &r0.b0, r4, 12, 1     ; [ALU_PRU] |176| $O$K3
    2440 000004c4 0000006F0000FF          QBNE      ||$C$L25||, r0.b0, 0x00 ; [ALU_PRU] |176| 
    2441;* --------------------------------------------------------------------------*
    2442;*** 178        -----------------------    _tmpval = C$1 = (unsigned char)(*K$22&0xdf);
    2443;*** 178        -----------------------    buslatches_pru0_dataout((unsigned)C$1);
    2444;*** 178        -----------------------    __R30 = 1024u;
    2445;*** 178        -----------------------    *K$22 = _tmpval;
    2446;*** 178        -----------------------    __delay_cycles(4u);
    2447;*** 178        -----------------------    __R30 = 3072u;
    2448;*** 179        -----------------------    (*K$16).state = &sm_dma_state_99;
    2449;*** 234        -----------------------    return 0;
    2450        .dwpsn  file "pru1_statemachine_dma.c",line 178,column 4,is_stmt,isa 0
    2451 000004c8 000000F1000700          LBBO      &r0.b0, r7, 0, 1      ; [ALU_PRU] |178| $O$K22
    2452 000004cc 00000011DF0004          AND       r4.b0, r0.b0, 0xdf    ; [ALU_PRU] |178| $O$C1
    2453 000004d0 000000100404EE          MOV       r14, r4.b0            ; [ALU_PRU] |178| $O$C1
    2454$C$DW$122       .dwtag  DW_TAG_TI_branch
    2455        .dwattr $C$DW$122, DW_AT_low_pc(0x00)
    2456        .dwattr $C$DW$122, DW_AT_name("buslatches_pru0_dataout")
    2457        .dwattr $C$DW$122, DW_AT_TI_call
    2458
    2459 000004d4 000000230000C3!         JAL       r3.w2, ||buslatches_pru0_dataout|| ; [ALU_PRU] |178| buslatches_pru0_dataout
    2460 000004d8 000000240400FE          LDI       r30, 0x0400           ; [ALU_PRU] |178| 
    2461 000004dc 000000E1000704          SBBO      &r4.b0, r7, 0, 1      ; [ALU_PRU] |178| $O$K22,_tmpval
    2462        .newblock
    2463 000004e0 000185240000C5          LDI32    r5, 1
         000004e7 00000000004024 
    2464 000004e8 0000000501E5E5  $1:     SUB      r5, r5, 1
    2465 000004ec 0000006F00E5FF          QBNE     $1, r5, 0             ; [ALU_PRU] |178| 
    2466        .dwpsn  file "pru1_statemachine_dma.c",line 234,column 2,is_stmt,isa 0
    2467 000004f0 0000002400000E          LDI       r14.b0, 0x00          ; [ALU_PRU] |234| 
    2468        .dwpsn  file "pru1_statemachine_dma.c",line 179,column 4,is_stmt,isa 0
    2469 000004f4 00000024000080!         LDI       r0.w0, $CODE(||sm_dma_state_99||) ; [ALU_PRU] |179| sm_dma_state_99
    2470        .dwpsn  file "pru1_statemachine_dma.c",line 178,column 4,is_stmt,isa 0
    2471 000004f8 000000240C00FE          LDI       r30, 0x0c00           ; [ALU_PRU] |178| 
    2472        .dwpsn  file "pru1_statemachine_dma.c",line 179,column 4,is_stmt,isa 0
    2473 000004fc 000000E1000880          SBBO      &r0.w0, r8, 0, 2      ; [ALU_PRU] |179| $O$K16
    2474;* --------------------------------------------------------------------------*
    2475 00000500                 ||$C$L26||:    
    2476 00000500 000000F50242C3          LBBO      &r3.b2, r2, 2, 38     ; [ALU_PRU] 
    2477        .dwcfi  restore_reg, 14
    2478        .dwcfi  restore_reg, 15
    2479        .dwcfi  restore_reg, 16
    2480        .dwcfi  restore_reg, 17
    2481        .dwcfi  restore_reg, 18
    2482        .dwcfi  restore_reg, 19
    2483        .dwcfi  restore_reg, 20
    2484        .dwcfi  restore_reg, 21
PRU Assembler Unix v2.3.1 Sun Mar 31 20:55:35 2019

Tools Copyright (c) 2012-2017 Texas Instruments Incorporated
pru1_statemachine_dma.asm                                            PAGE   47

    2485        .dwcfi  restore_reg, 22
    2486        .dwcfi  restore_reg, 23
    2487        .dwcfi  restore_reg, 24
    2488        .dwcfi  restore_reg, 25
    2489        .dwcfi  restore_reg, 26
    2490        .dwcfi  restore_reg, 27
    2491        .dwcfi  restore_reg, 28
    2492        .dwcfi  restore_reg, 29
    2493        .dwcfi  restore_reg, 30
    2494        .dwcfi  restore_reg, 31
    2495        .dwcfi  restore_reg, 32
    2496        .dwcfi  restore_reg, 33
    2497        .dwcfi  restore_reg, 34
    2498        .dwcfi  restore_reg, 35
    2499        .dwcfi  restore_reg, 36
    2500        .dwcfi  restore_reg, 37
    2501        .dwcfi  restore_reg, 38
    2502        .dwcfi  restore_reg, 39
    2503        .dwcfi  restore_reg, 40
    2504        .dwcfi  restore_reg, 41
    2505        .dwcfi  restore_reg, 42
    2506        .dwcfi  restore_reg, 43
    2507        .dwcfi  restore_reg, 44
    2508        .dwcfi  restore_reg, 45
    2509        .dwcfi  restore_reg, 46
    2510        .dwcfi  restore_reg, 47
    2511        .dwcfi  restore_reg, 48
    2512        .dwcfi  restore_reg, 49
    2513        .dwcfi  restore_reg, 50
    2514        .dwcfi  restore_reg, 51
    2515 00000504 0000000128E2E2          ADD       r2, r2, 0x28          ; [ALU_PRU] 
    2516        .dwcfi  cfa_offset, 0
    2517$C$DW$123       .dwtag  DW_TAG_TI_branch
    2518        .dwattr $C$DW$123, DW_AT_low_pc(0x00)
    2519        .dwattr $C$DW$123, DW_AT_TI_return
    2520
    2521 00000508 00000020C30000          JMP       r3.w2                 ; [ALU_PRU] 
    2522        .dwattr $C$DW$62, DW_AT_TI_end_file("pru1_statemachine_dma.c")
    2523        .dwattr $C$DW$62, DW_AT_TI_end_line(0xeb)
    2524        .dwattr $C$DW$62, DW_AT_TI_end_column(0x01)
    2525        .dwendentry
    2526        .dwendtag $C$DW$62
    2527
    2528 00000000                         .sect   ".text:sm_dma_start"
    2529        .clink
    2530        .global ||sm_dma_start||
    2531
    2532$C$DW$124       .dwtag  DW_TAG_subprogram
    2533        .dwattr $C$DW$124, DW_AT_name("sm_dma_start")
    2534        .dwattr $C$DW$124, DW_AT_low_pc(||sm_dma_start||)
    2535        .dwattr $C$DW$124, DW_AT_high_pc(0x00)
    2536        .dwattr $C$DW$124, DW_AT_TI_symbol_name("sm_dma_start")
    2537        .dwattr $C$DW$124, DW_AT_external
    2538        .dwattr $C$DW$124, DW_AT_TI_begin_file("pru1_statemachine_dma.c")
    2539        .dwattr $C$DW$124, DW_AT_TI_begin_line(0x54)
PRU Assembler Unix v2.3.1 Sun Mar 31 20:55:35 2019

Tools Copyright (c) 2012-2017 Texas Instruments Incorporated
pru1_statemachine_dma.asm                                            PAGE   48

    2540        .dwattr $C$DW$124, DW_AT_TI_begin_column(0x06)
    2541        .dwattr $C$DW$124, DW_AT_decl_file("pru1_statemachine_dma.c")
    2542        .dwattr $C$DW$124, DW_AT_decl_line(0x54)
    2543        .dwattr $C$DW$124, DW_AT_decl_column(0x06)
    2544        .dwattr $C$DW$124, DW_AT_TI_max_frame_size(0x00)
    2545        .dwpsn  file "pru1_statemachine_dma.c",line 84,column 21,is_stmt,address ||sm_dma_start||,isa 
    2546
    2547        .dwfde $C$DW$CIE, ||sm_dma_start||
    2548;----------------------------------------------------------------------
    2549;  84 | void sm_dma_start() {                                                  
    2550;  85 | // assert BBSY: latch[1], bit 6                                        
    2551;  86 | // buslatches_setbits(1, BIT(6), BIT(6));                              
    2552;----------------------------------------------------------------------
    2553
    2554;***************************************************************
    2555;* FNAME: sm_dma_start                  FR SIZE:   0           *
    2556;*                                                             *
    2557;* FUNCTION ENVIRONMENT                                        *
    2558;*                                                             *
    2559;* FUNCTION PROPERTIES                                         *
    2560;*                            0 Auto,  0 SOE     *
    2561;***************************************************************
    2562
    2563||sm_dma_start||:
    2564;* --------------------------------------------------------------------------*
    2565;* r0_0  assigned to $O$C1
    2566$C$DW$125       .dwtag  DW_TAG_variable
    2567        .dwattr $C$DW$125, DW_AT_name("$O$C1")
    2568        .dwattr $C$DW$125, DW_AT_TI_symbol_name("$O$C1")
    2569        .dwattr $C$DW$125, DW_AT_type(*$C$DW$T$130)
    2570        .dwattr $C$DW$125, DW_AT_location[DW_OP_reg0]
    2571
    2572;* r1_0  assigned to $O$C2
    2573$C$DW$126       .dwtag  DW_TAG_variable
    2574        .dwattr $C$DW$126, DW_AT_name("$O$C2")
    2575        .dwattr $C$DW$126, DW_AT_TI_symbol_name("$O$C2")
    2576        .dwattr $C$DW$126, DW_AT_type(*$C$DW$T$138)
    2577        .dwattr $C$DW$126, DW_AT_location[DW_OP_reg4]
    2578
    2579        .dwcfi  cfa_offset, 0
    2580;*** 88 -----------------------    C$1 = &mailbox;
    2581;*** 88 -----------------------    (*C$1).$P$T1.dma.cur_addr = (*C$1).$P$T1.dma.startaddr;
    2582;*** 89 -----------------------    (*(C$2 = &sm_dma)).dataptr = (volatile unsigned short *)C$1+36;
    2583;*** 90 -----------------------    (*C$2).state = &sm_dma_state_1;
    2584;*** 91 -----------------------    (*C$2).cur_wordsleft = (*C$1).$P$T1.dma.wordcount;
    2585;*** 92 -----------------------    (*C$1).$P$T1.dma.cur_status = 2u;
    2586;***    -----------------------    return;
    2587        .dwpsn  file "pru1_statemachine_dma.c",line 88,column 2,is_stmt,isa 0
    2588;----------------------------------------------------------------------
    2589;  88 | mailbox.dma.cur_addr = mailbox.dma.startaddr;                          
    2590;----------------------------------------------------------------------
    2591 00000000 000080240000C0!         LDI32     r0, ||mailbox||       ; [ALU_PRU] |88| $O$C1,mailbox
         00000007 00000021004024 
    2592 00000008 000000F1202081          LBBO      &r1, r0, 32, 4        ; [ALU_PRU] |88| $O$C1
    2593 0000000c 000000E11C2081          SBBO      &r1, r0, 28, 4        ; [ALU_PRU] |88| $O$C1
PRU Assembler Unix v2.3.1 Sun Mar 31 20:55:35 2019

Tools Copyright (c) 2012-2017 Texas Instruments Incorporated
pru1_statemachine_dma.asm                                            PAGE   49

    2594        .dwpsn  file "pru1_statemachine_dma.c",line 89,column 2,is_stmt,isa 0
    2595;----------------------------------------------------------------------
    2596;  89 | sm_dma.dataptr = (uint16_t *) mailbox.dma.words; // point to start of d
    2597;     | ata buffer                                                             
    2598;----------------------------------------------------------------------
    2599 00000010 000000240000E1!         LDI       r1, ||sm_dma||        ; [ALU_PRU] |89| $O$C2,sm_dma
    2600 00000014 0000000124E0EE          ADD       r14, r0, 0x24         ; [ALU_PRU] |89| $O$C1
    2601 00000018 000000E103218E          SBBO      &r14, r1, 3, 4        ; [ALU_PRU] |89| $O$C2
    2602        .dwpsn  file "pru1_statemachine_dma.c",line 90,column 2,is_stmt,isa 0
    2603;----------------------------------------------------------------------
    2604;  90 | sm_dma.state = &sm_dma_state_1;                                        
    2605;----------------------------------------------------------------------
    2606 0000001c 0000002400008E!         LDI       r14.w0, $CODE(||sm_dma_state_1||) ; [ALU_PRU] |90| sm_dma_state_1
    2607 00000020 000000E100018E          SBBO      &r14.w0, r1, 0, 2     ; [ALU_PRU] |90| $O$C2
    2608        .dwpsn  file "pru1_statemachine_dma.c",line 91,column 2,is_stmt,isa 0
    2609;----------------------------------------------------------------------
    2610;  91 | sm_dma.cur_wordsleft = mailbox.dma.wordcount;                          
    2611;----------------------------------------------------------------------
    2612 00000024 000000F11A008E          LBBO      &r14.w0, r0, 26, 2    ; [ALU_PRU] |91| $O$C1
    2613 00000028 000000E107018E          SBBO      &r14.w0, r1, 7, 2     ; [ALU_PRU] |91| $O$C2
    2614        .dwpsn  file "pru1_statemachine_dma.c",line 92,column 2,is_stmt,isa 0
    2615;----------------------------------------------------------------------
    2616;  92 | mailbox.dma.cur_status = DMA_STATE_RUNNING;                            
    2617;  93 | // next call to sm_dma.state() starts state machine                    
    2618;----------------------------------------------------------------------
    2619 0000002c 00000024000201          LDI       r1.b0, 0x02           ; [ALU_PRU] |92| 
    2620 00000030 000000E1180001          SBBO      &r1.b0, r0, 24, 1     ; [ALU_PRU] |92| $O$C1
    2621$C$DW$127       .dwtag  DW_TAG_TI_branch
    2622        .dwattr $C$DW$127, DW_AT_low_pc(0x00)
    2623        .dwattr $C$DW$127, DW_AT_TI_return
    2624
    2625 00000034 00000020C30000          JMP       r3.w2                 ; [ALU_PRU] 
    2626        .dwattr $C$DW$124, DW_AT_TI_end_file("pru1_statemachine_dma.c")
    2627        .dwattr $C$DW$124, DW_AT_TI_end_line(0x5e)
    2628        .dwattr $C$DW$124, DW_AT_TI_end_column(0x01)
    2629        .dwendentry
    2630        .dwendtag $C$DW$124
    2631
    2632;*****************************************************************************
    2633;* UNDEFINED EXTERNAL REFERENCES                                             *
    2634;*****************************************************************************
    2635        .global ||mailbox||
    2636        .global ||buslatches||
    2637        .global ||timeout_target||
    2638        .global ||sm_arb||
    2639        .global ||buslatches_pru0_dataout||
    2640        .global ||iopageregisters_write_w||
    2641        .global ||iopageregisters_write_b||
    2642        .global ||iopageregisters_read||
    2643        .global ||sm_arb_state_idle||
    2644
    2645;******************************************************************************
    2646;* TYPE INFORMATION                                                           *
    2647;******************************************************************************
    2648
PRU Assembler Unix v2.3.1 Sun Mar 31 20:55:35 2019

Tools Copyright (c) 2012-2017 Texas Instruments Incorporated
pru1_statemachine_dma.asm                                            PAGE   50

    2649$C$DW$T$19      .dwtag  DW_TAG_structure_type
    2650        .dwattr $C$DW$T$19, DW_AT_byte_size(0x40000)
    2651$C$DW$128       .dwtag  DW_TAG_member
    2652        .dwattr $C$DW$128, DW_AT_type(*$C$DW$T$75)
    2653        .dwattr $C$DW$128, DW_AT_name("$P$T0")
    2654        .dwattr $C$DW$128, DW_AT_TI_symbol_name("$P$T0")
    2655        .dwattr $C$DW$128, DW_AT_data_member_location[DW_OP_plus_uconst 0x0]
    2656        .dwattr $C$DW$128, DW_AT_accessibility(DW_ACCESS_public)
    2657        .dwattr $C$DW$128, DW_AT_decl_file("/home/joerg/retrocmp/dec/UniBone/10.01_base/2_src/shared/u
    2658        .dwattr $C$DW$128, DW_AT_decl_line(0x34)
    2659        .dwattr $C$DW$128, DW_AT_decl_column(0x02)
    2660
    2661        .dwattr $C$DW$T$19, DW_AT_decl_file("/home/joerg/retrocmp/dec/UniBone/10.01_base/2_src/shared/
    2662        .dwattr $C$DW$T$19, DW_AT_decl_line(0x33)
    2663        .dwattr $C$DW$T$19, DW_AT_decl_column(0x10)
    2664        .dwendtag $C$DW$T$19
    2665
    2666$C$DW$T$20      .dwtag  DW_TAG_typedef
    2667        .dwattr $C$DW$T$20, DW_AT_name("unibus_memory_t")
    2668        .dwattr $C$DW$T$20, DW_AT_type(*$C$DW$T$19)
    2669        .dwattr $C$DW$T$20, DW_AT_language(DW_LANG_C)
    2670        .dwattr $C$DW$T$20, DW_AT_decl_file("/home/joerg/retrocmp/dec/UniBone/10.01_base/2_src/shared/
    2671        .dwattr $C$DW$T$20, DW_AT_decl_line(0x38)
    2672        .dwattr $C$DW$T$20, DW_AT_decl_column(0x03)
    2673
    2674
    2675$C$DW$T$21      .dwtag  DW_TAG_structure_type
    2676        .dwattr $C$DW$T$21, DW_AT_byte_size(0x40000)
    2677$C$DW$129       .dwtag  DW_TAG_member
    2678        .dwattr $C$DW$129, DW_AT_type(*$C$DW$T$20)
    2679        .dwattr $C$DW$129, DW_AT_name("memory")
    2680        .dwattr $C$DW$129, DW_AT_TI_symbol_name("memory")
    2681        .dwattr $C$DW$129, DW_AT_data_member_location[DW_OP_plus_uconst 0x0]
    2682        .dwattr $C$DW$129, DW_AT_accessibility(DW_ACCESS_public)
    2683        .dwattr $C$DW$129, DW_AT_decl_file("/home/joerg/retrocmp/dec/UniBone/10.01_base/2_src/shared/d
    2684        .dwattr $C$DW$129, DW_AT_decl_line(0x17)
    2685        .dwattr $C$DW$129, DW_AT_decl_column(0x12)
    2686
    2687        .dwattr $C$DW$T$21, DW_AT_decl_file("/home/joerg/retrocmp/dec/UniBone/10.01_base/2_src/shared/
    2688        .dwattr $C$DW$T$21, DW_AT_decl_line(0x14)
    2689        .dwattr $C$DW$T$21, DW_AT_decl_column(0x10)
    2690        .dwendtag $C$DW$T$21
    2691
    2692$C$DW$T$32      .dwtag  DW_TAG_typedef
    2693        .dwattr $C$DW$T$32, DW_AT_name("ddrmem_t")
    2694        .dwattr $C$DW$T$32, DW_AT_type(*$C$DW$T$21)
    2695        .dwattr $C$DW$T$32, DW_AT_language(DW_LANG_C)
    2696        .dwattr $C$DW$T$32, DW_AT_decl_file("/home/joerg/retrocmp/dec/UniBone/10.01_base/2_src/shared/
    2697        .dwattr $C$DW$T$32, DW_AT_decl_line(0x18)
    2698        .dwattr $C$DW$T$32, DW_AT_decl_column(0x03)
    2699
    2700$C$DW$T$33      .dwtag  DW_TAG_volatile_type
    2701        .dwattr $C$DW$T$33, DW_AT_type(*$C$DW$T$32)
    2702
    2703$C$DW$T$34      .dwtag  DW_TAG_pointer_type
PRU Assembler Unix v2.3.1 Sun Mar 31 20:55:35 2019

Tools Copyright (c) 2012-2017 Texas Instruments Incorporated
pru1_statemachine_dma.asm                                            PAGE   51

    2704        .dwattr $C$DW$T$34, DW_AT_type(*$C$DW$T$33)
    2705        .dwattr $C$DW$T$34, DW_AT_address_class(0x20)
    2706
    2707
    2708$C$DW$T$25      .dwtag  DW_TAG_structure_type
    2709        .dwattr $C$DW$T$25, DW_AT_byte_size(0x0c)
    2710$C$DW$130       .dwtag  DW_TAG_member
    2711        .dwattr $C$DW$130, DW_AT_type(*$C$DW$T$22)
    2712        .dwattr $C$DW$130, DW_AT_name("eventmask")
    2713        .dwattr $C$DW$130, DW_AT_TI_symbol_name("eventmask")
    2714        .dwattr $C$DW$130, DW_AT_data_member_location[DW_OP_plus_uconst 0x0]
    2715        .dwattr $C$DW$130, DW_AT_accessibility(DW_ACCESS_public)
    2716        .dwattr $C$DW$130, DW_AT_decl_file("/home/joerg/retrocmp/dec/UniBone/10.01_base/2_src/shared/m
    2717        .dwattr $C$DW$130, DW_AT_decl_line(0x7a)
    2718        .dwattr $C$DW$130, DW_AT_decl_column(0x0a)
    2719
    2720$C$DW$131       .dwtag  DW_TAG_member
    2721        .dwattr $C$DW$131, DW_AT_type(*$C$DW$T$22)
    2722        .dwattr $C$DW$131, DW_AT_name("unibus_control")
    2723        .dwattr $C$DW$131, DW_AT_TI_symbol_name("unibus_control")
    2724        .dwattr $C$DW$131, DW_AT_data_member_location[DW_OP_plus_uconst 0x1]
    2725        .dwattr $C$DW$131, DW_AT_accessibility(DW_ACCESS_public)
    2726        .dwattr $C$DW$131, DW_AT_decl_file("/home/joerg/retrocmp/dec/UniBone/10.01_base/2_src/shared/m
    2727        .dwattr $C$DW$131, DW_AT_decl_line(0x7d)
    2728        .dwattr $C$DW$131, DW_AT_decl_column(0x0a)
    2729
    2730$C$DW$132       .dwtag  DW_TAG_member
    2731        .dwattr $C$DW$132, DW_AT_type(*$C$DW$T$22)
    2732        .dwattr $C$DW$132, DW_AT_name("device_handle")
    2733        .dwattr $C$DW$132, DW_AT_TI_symbol_name("device_handle")
    2734        .dwattr $C$DW$132, DW_AT_data_member_location[DW_OP_plus_uconst 0x2]
    2735        .dwattr $C$DW$132, DW_AT_accessibility(DW_ACCESS_public)
    2736        .dwattr $C$DW$132, DW_AT_decl_file("/home/joerg/retrocmp/dec/UniBone/10.01_base/2_src/shared/m
    2737        .dwattr $C$DW$132, DW_AT_decl_line(0x7f)
    2738        .dwattr $C$DW$132, DW_AT_decl_column(0x0a)
    2739
    2740$C$DW$133       .dwtag  DW_TAG_member
    2741        .dwattr $C$DW$133, DW_AT_type(*$C$DW$T$22)
    2742        .dwattr $C$DW$133, DW_AT_name("device_register_idx")
    2743        .dwattr $C$DW$133, DW_AT_TI_symbol_name("device_register_idx")
    2744        .dwattr $C$DW$133, DW_AT_data_member_location[DW_OP_plus_uconst 0x3]
    2745        .dwattr $C$DW$133, DW_AT_accessibility(DW_ACCESS_public)
    2746        .dwattr $C$DW$133, DW_AT_decl_file("/home/joerg/retrocmp/dec/UniBone/10.01_base/2_src/shared/m
    2747        .dwattr $C$DW$133, DW_AT_decl_line(0x81)
    2748        .dwattr $C$DW$133, DW_AT_decl_column(0x0a)
    2749
    2750$C$DW$134       .dwtag  DW_TAG_member
    2751        .dwattr $C$DW$134, DW_AT_type(*$C$DW$T$23)
    2752        .dwattr $C$DW$134, DW_AT_name("addr")
    2753        .dwattr $C$DW$134, DW_AT_TI_symbol_name("addr")
    2754        .dwattr $C$DW$134, DW_AT_data_member_location[DW_OP_plus_uconst 0x4]
    2755        .dwattr $C$DW$134, DW_AT_accessibility(DW_ACCESS_public)
    2756        .dwattr $C$DW$134, DW_AT_decl_file("/home/joerg/retrocmp/dec/UniBone/10.01_base/2_src/shared/m
    2757        .dwattr $C$DW$134, DW_AT_decl_line(0x83)
    2758        .dwattr $C$DW$134, DW_AT_decl_column(0x0b)
PRU Assembler Unix v2.3.1 Sun Mar 31 20:55:35 2019

Tools Copyright (c) 2012-2017 Texas Instruments Incorporated
pru1_statemachine_dma.asm                                            PAGE   52

    2759
    2760$C$DW$135       .dwtag  DW_TAG_member
    2761        .dwattr $C$DW$135, DW_AT_type(*$C$DW$T$24)
    2762        .dwattr $C$DW$135, DW_AT_name("data")
    2763        .dwattr $C$DW$135, DW_AT_TI_symbol_name("data")
    2764        .dwattr $C$DW$135, DW_AT_data_member_location[DW_OP_plus_uconst 0x8]
    2765        .dwattr $C$DW$135, DW_AT_accessibility(DW_ACCESS_public)
    2766        .dwattr $C$DW$135, DW_AT_decl_file("/home/joerg/retrocmp/dec/UniBone/10.01_base/2_src/shared/m
    2767        .dwattr $C$DW$135, DW_AT_decl_line(0x84)
    2768        .dwattr $C$DW$135, DW_AT_decl_column(0x0b)
    2769
    2770$C$DW$136       .dwtag  DW_TAG_member
    2771        .dwattr $C$DW$136, DW_AT_type(*$C$DW$T$22)
    2772        .dwattr $C$DW$136, DW_AT_name("initialization_signals_prev")
    2773        .dwattr $C$DW$136, DW_AT_TI_symbol_name("initialization_signals_prev")
    2774        .dwattr $C$DW$136, DW_AT_data_member_location[DW_OP_plus_uconst 0xa]
    2775        .dwattr $C$DW$136, DW_AT_accessibility(DW_ACCESS_public)
    2776        .dwattr $C$DW$136, DW_AT_decl_file("/home/joerg/retrocmp/dec/UniBone/10.01_base/2_src/shared/m
    2777        .dwattr $C$DW$136, DW_AT_decl_line(0x87)
    2778        .dwattr $C$DW$136, DW_AT_decl_column(0x0a)
    2779
    2780$C$DW$137       .dwtag  DW_TAG_member
    2781        .dwattr $C$DW$137, DW_AT_type(*$C$DW$T$22)
    2782        .dwattr $C$DW$137, DW_AT_name("initialization_signals_cur")
    2783        .dwattr $C$DW$137, DW_AT_TI_symbol_name("initialization_signals_cur")
    2784        .dwattr $C$DW$137, DW_AT_data_member_location[DW_OP_plus_uconst 0xb]
    2785        .dwattr $C$DW$137, DW_AT_accessibility(DW_ACCESS_public)
    2786        .dwattr $C$DW$137, DW_AT_decl_file("/home/joerg/retrocmp/dec/UniBone/10.01_base/2_src/shared/m
    2787        .dwattr $C$DW$137, DW_AT_decl_line(0x88)
    2788        .dwattr $C$DW$137, DW_AT_decl_column(0x0a)
    2789
    2790        .dwattr $C$DW$T$25, DW_AT_decl_file("/home/joerg/retrocmp/dec/UniBone/10.01_base/2_src/shared/
    2791        .dwattr $C$DW$T$25, DW_AT_decl_line(0x79)
    2792        .dwattr $C$DW$T$25, DW_AT_decl_column(0x10)
    2793        .dwendtag $C$DW$T$25
    2794
    2795$C$DW$T$35      .dwtag  DW_TAG_typedef
    2796        .dwattr $C$DW$T$35, DW_AT_name("mailbox_events_t")
    2797        .dwattr $C$DW$T$35, DW_AT_type(*$C$DW$T$25)
    2798        .dwattr $C$DW$T$35, DW_AT_language(DW_LANG_C)
    2799        .dwattr $C$DW$T$35, DW_AT_decl_file("/home/joerg/retrocmp/dec/UniBone/10.01_base/2_src/shared/
    2800        .dwattr $C$DW$T$35, DW_AT_decl_line(0x8b)
    2801        .dwattr $C$DW$T$35, DW_AT_decl_column(0x03)
    2802
    2803
    2804$C$DW$T$26      .dwtag  DW_TAG_structure_type
    2805        .dwattr $C$DW$T$26, DW_AT_byte_size(0x08)
    2806$C$DW$138       .dwtag  DW_TAG_member
    2807        .dwattr $C$DW$138, DW_AT_type(*$C$DW$T$23)
    2808        .dwattr $C$DW$138, DW_AT_name("addr")
    2809        .dwattr $C$DW$138, DW_AT_TI_symbol_name("addr")
    2810        .dwattr $C$DW$138, DW_AT_data_member_location[DW_OP_plus_uconst 0x0]
    2811        .dwattr $C$DW$138, DW_AT_accessibility(DW_ACCESS_public)
    2812        .dwattr $C$DW$138, DW_AT_decl_file("/home/joerg/retrocmp/dec/UniBone/10.01_base/2_src/shared/m
    2813        .dwattr $C$DW$138, DW_AT_decl_line(0x4c)
PRU Assembler Unix v2.3.1 Sun Mar 31 20:55:35 2019

Tools Copyright (c) 2012-2017 Texas Instruments Incorporated
pru1_statemachine_dma.asm                                            PAGE   53

    2814        .dwattr $C$DW$138, DW_AT_decl_column(0x0b)
    2815
    2816$C$DW$139       .dwtag  DW_TAG_member
    2817        .dwattr $C$DW$139, DW_AT_type(*$C$DW$T$23)
    2818        .dwattr $C$DW$139, DW_AT_name("val")
    2819        .dwattr $C$DW$139, DW_AT_TI_symbol_name("val")
    2820        .dwattr $C$DW$139, DW_AT_data_member_location[DW_OP_plus_uconst 0x4]
    2821        .dwattr $C$DW$139, DW_AT_accessibility(DW_ACCESS_public)
    2822        .dwattr $C$DW$139, DW_AT_decl_file("/home/joerg/retrocmp/dec/UniBone/10.01_base/2_src/shared/m
    2823        .dwattr $C$DW$139, DW_AT_decl_line(0x4d)
    2824        .dwattr $C$DW$139, DW_AT_decl_column(0x0b)
    2825
    2826        .dwattr $C$DW$T$26, DW_AT_decl_file("/home/joerg/retrocmp/dec/UniBone/10.01_base/2_src/shared/
    2827        .dwattr $C$DW$T$26, DW_AT_decl_line(0x4b)
    2828        .dwattr $C$DW$T$26, DW_AT_decl_column(0x10)
    2829        .dwendtag $C$DW$T$26
    2830
    2831$C$DW$T$76      .dwtag  DW_TAG_typedef
    2832        .dwattr $C$DW$T$76, DW_AT_name("mailbox_test_t")
    2833        .dwattr $C$DW$T$76, DW_AT_type(*$C$DW$T$26)
    2834        .dwattr $C$DW$T$76, DW_AT_language(DW_LANG_C)
    2835        .dwattr $C$DW$T$76, DW_AT_decl_file("/home/joerg/retrocmp/dec/UniBone/10.01_base/2_src/shared/
    2836        .dwattr $C$DW$T$76, DW_AT_decl_line(0x4e)
    2837        .dwattr $C$DW$T$76, DW_AT_decl_column(0x03)
    2838
    2839
    2840$C$DW$T$27      .dwtag  DW_TAG_structure_type
    2841        .dwattr $C$DW$T$27, DW_AT_byte_size(0x0c)
    2842$C$DW$140       .dwtag  DW_TAG_member
    2843        .dwattr $C$DW$140, DW_AT_type(*$C$DW$T$23)
    2844        .dwattr $C$DW$140, DW_AT_name("addr")
    2845        .dwattr $C$DW$140, DW_AT_TI_symbol_name("addr")
    2846        .dwattr $C$DW$140, DW_AT_data_member_location[DW_OP_plus_uconst 0x0]
    2847        .dwattr $C$DW$140, DW_AT_accessibility(DW_ACCESS_public)
    2848        .dwattr $C$DW$140, DW_AT_decl_file("/home/joerg/retrocmp/dec/UniBone/10.01_base/2_src/shared/m
    2849        .dwattr $C$DW$140, DW_AT_decl_line(0x51)
    2850        .dwattr $C$DW$140, DW_AT_decl_column(0x0b)
    2851
    2852$C$DW$141       .dwtag  DW_TAG_member
    2853        .dwattr $C$DW$141, DW_AT_type(*$C$DW$T$23)
    2854        .dwattr $C$DW$141, DW_AT_name("bitmask")
    2855        .dwattr $C$DW$141, DW_AT_TI_symbol_name("bitmask")
    2856        .dwattr $C$DW$141, DW_AT_data_member_location[DW_OP_plus_uconst 0x4]
    2857        .dwattr $C$DW$141, DW_AT_accessibility(DW_ACCESS_public)
    2858        .dwattr $C$DW$141, DW_AT_decl_file("/home/joerg/retrocmp/dec/UniBone/10.01_base/2_src/shared/m
    2859        .dwattr $C$DW$141, DW_AT_decl_line(0x52)
    2860        .dwattr $C$DW$141, DW_AT_decl_column(0x0b)
    2861
    2862$C$DW$142       .dwtag  DW_TAG_member
    2863        .dwattr $C$DW$142, DW_AT_type(*$C$DW$T$23)
    2864        .dwattr $C$DW$142, DW_AT_name("val")
    2865        .dwattr $C$DW$142, DW_AT_TI_symbol_name("val")
    2866        .dwattr $C$DW$142, DW_AT_data_member_location[DW_OP_plus_uconst 0x8]
    2867        .dwattr $C$DW$142, DW_AT_accessibility(DW_ACCESS_public)
    2868        .dwattr $C$DW$142, DW_AT_decl_file("/home/joerg/retrocmp/dec/UniBone/10.01_base/2_src/shared/m
PRU Assembler Unix v2.3.1 Sun Mar 31 20:55:35 2019

Tools Copyright (c) 2012-2017 Texas Instruments Incorporated
pru1_statemachine_dma.asm                                            PAGE   54

    2869        .dwattr $C$DW$142, DW_AT_decl_line(0x53)
    2870        .dwattr $C$DW$142, DW_AT_decl_column(0x0b)
    2871
    2872        .dwattr $C$DW$T$27, DW_AT_decl_file("/home/joerg/retrocmp/dec/UniBone/10.01_base/2_src/shared/
    2873        .dwattr $C$DW$T$27, DW_AT_decl_line(0x50)
    2874        .dwattr $C$DW$T$27, DW_AT_decl_column(0x10)
    2875        .dwendtag $C$DW$T$27
    2876
    2877$C$DW$T$77      .dwtag  DW_TAG_typedef
    2878        .dwattr $C$DW$T$77, DW_AT_name("mailbox_buslatch_t")
    2879        .dwattr $C$DW$T$77, DW_AT_type(*$C$DW$T$27)
    2880        .dwattr $C$DW$T$77, DW_AT_language(DW_LANG_C)
    2881        .dwattr $C$DW$T$77, DW_AT_decl_file("/home/joerg/retrocmp/dec/UniBone/10.01_base/2_src/shared/
    2882        .dwattr $C$DW$T$77, DW_AT_decl_line(0x54)
    2883        .dwattr $C$DW$T$77, DW_AT_decl_column(0x03)
    2884
    2885
    2886$C$DW$T$28      .dwtag  DW_TAG_structure_type
    2887        .dwattr $C$DW$T$28, DW_AT_byte_size(0x04)
    2888$C$DW$143       .dwtag  DW_TAG_member
    2889        .dwattr $C$DW$143, DW_AT_type(*$C$DW$T$22)
    2890        .dwattr $C$DW$143, DW_AT_name("addr_0_7")
    2891        .dwattr $C$DW$143, DW_AT_TI_symbol_name("addr_0_7")
    2892        .dwattr $C$DW$143, DW_AT_data_member_location[DW_OP_plus_uconst 0x0]
    2893        .dwattr $C$DW$143, DW_AT_accessibility(DW_ACCESS_public)
    2894        .dwattr $C$DW$143, DW_AT_decl_file("/home/joerg/retrocmp/dec/UniBone/10.01_base/2_src/shared/m
    2895        .dwattr $C$DW$143, DW_AT_decl_line(0x57)
    2896        .dwattr $C$DW$143, DW_AT_decl_column(0x0a)
    2897
    2898$C$DW$144       .dwtag  DW_TAG_member
    2899        .dwattr $C$DW$144, DW_AT_type(*$C$DW$T$22)
    2900        .dwattr $C$DW$144, DW_AT_name("addr_8_15")
    2901        .dwattr $C$DW$144, DW_AT_TI_symbol_name("addr_8_15")
    2902        .dwattr $C$DW$144, DW_AT_data_member_location[DW_OP_plus_uconst 0x1]
    2903        .dwattr $C$DW$144, DW_AT_accessibility(DW_ACCESS_public)
    2904        .dwattr $C$DW$144, DW_AT_decl_file("/home/joerg/retrocmp/dec/UniBone/10.01_base/2_src/shared/m
    2905        .dwattr $C$DW$144, DW_AT_decl_line(0x58)
    2906        .dwattr $C$DW$144, DW_AT_decl_column(0x0a)
    2907
    2908$C$DW$145       .dwtag  DW_TAG_member
    2909        .dwattr $C$DW$145, DW_AT_type(*$C$DW$T$22)
    2910        .dwattr $C$DW$145, DW_AT_name("data_0_7")
    2911        .dwattr $C$DW$145, DW_AT_TI_symbol_name("data_0_7")
    2912        .dwattr $C$DW$145, DW_AT_data_member_location[DW_OP_plus_uconst 0x2]
    2913        .dwattr $C$DW$145, DW_AT_accessibility(DW_ACCESS_public)
    2914        .dwattr $C$DW$145, DW_AT_decl_file("/home/joerg/retrocmp/dec/UniBone/10.01_base/2_src/shared/m
    2915        .dwattr $C$DW$145, DW_AT_decl_line(0x59)
    2916        .dwattr $C$DW$145, DW_AT_decl_column(0x0a)
    2917
    2918$C$DW$146       .dwtag  DW_TAG_member
    2919        .dwattr $C$DW$146, DW_AT_type(*$C$DW$T$22)
    2920        .dwattr $C$DW$146, DW_AT_name("data_8_15")
    2921        .dwattr $C$DW$146, DW_AT_TI_symbol_name("data_8_15")
    2922        .dwattr $C$DW$146, DW_AT_data_member_location[DW_OP_plus_uconst 0x3]
    2923        .dwattr $C$DW$146, DW_AT_accessibility(DW_ACCESS_public)
PRU Assembler Unix v2.3.1 Sun Mar 31 20:55:35 2019

Tools Copyright (c) 2012-2017 Texas Instruments Incorporated
pru1_statemachine_dma.asm                                            PAGE   55

    2924        .dwattr $C$DW$146, DW_AT_decl_file("/home/joerg/retrocmp/dec/UniBone/10.01_base/2_src/shared/m
    2925        .dwattr $C$DW$146, DW_AT_decl_line(0x5a)
    2926        .dwattr $C$DW$146, DW_AT_decl_column(0x0a)
    2927
    2928        .dwattr $C$DW$T$28, DW_AT_decl_file("/home/joerg/retrocmp/dec/UniBone/10.01_base/2_src/shared/
    2929        .dwattr $C$DW$T$28, DW_AT_decl_line(0x56)
    2930        .dwattr $C$DW$T$28, DW_AT_decl_column(0x10)
    2931        .dwendtag $C$DW$T$28
    2932
    2933$C$DW$T$78      .dwtag  DW_TAG_typedef
    2934        .dwattr $C$DW$T$78, DW_AT_name("mailbox_buslatch_test_t")
    2935        .dwattr $C$DW$T$78, DW_AT_type(*$C$DW$T$28)
    2936        .dwattr $C$DW$T$78, DW_AT_language(DW_LANG_C)
    2937        .dwattr $C$DW$T$78, DW_AT_decl_file("/home/joerg/retrocmp/dec/UniBone/10.01_base/2_src/shared/
    2938        .dwattr $C$DW$T$78, DW_AT_decl_line(0x5b)
    2939        .dwattr $C$DW$T$78, DW_AT_decl_column(0x03)
    2940
    2941
    2942$C$DW$T$30      .dwtag  DW_TAG_structure_type
    2943        .dwattr $C$DW$T$30, DW_AT_byte_size(0x40c)
    2944$C$DW$147       .dwtag  DW_TAG_member
    2945        .dwattr $C$DW$147, DW_AT_type(*$C$DW$T$22)
    2946        .dwattr $C$DW$147, DW_AT_name("cur_status")
    2947        .dwattr $C$DW$147, DW_AT_TI_symbol_name("cur_status")
    2948        .dwattr $C$DW$147, DW_AT_data_member_location[DW_OP_plus_uconst 0x0]
    2949        .dwattr $C$DW$147, DW_AT_accessibility(DW_ACCESS_public)
    2950        .dwattr $C$DW$147, DW_AT_decl_file("/home/joerg/retrocmp/dec/UniBone/10.01_base/2_src/shared/m
    2951        .dwattr $C$DW$147, DW_AT_decl_line(0x61)
    2952        .dwattr $C$DW$147, DW_AT_decl_column(0x0a)
    2953
    2954$C$DW$148       .dwtag  DW_TAG_member
    2955        .dwattr $C$DW$148, DW_AT_type(*$C$DW$T$22)
    2956        .dwattr $C$DW$148, DW_AT_name("control")
    2957        .dwattr $C$DW$148, DW_AT_TI_symbol_name("control")
    2958        .dwattr $C$DW$148, DW_AT_data_member_location[DW_OP_plus_uconst 0x1]
    2959        .dwattr $C$DW$148, DW_AT_accessibility(DW_ACCESS_public)
    2960        .dwattr $C$DW$148, DW_AT_decl_file("/home/joerg/retrocmp/dec/UniBone/10.01_base/2_src/shared/m
    2961        .dwattr $C$DW$148, DW_AT_decl_line(0x62)
    2962        .dwattr $C$DW$148, DW_AT_decl_column(0x0a)
    2963
    2964$C$DW$149       .dwtag  DW_TAG_member
    2965        .dwattr $C$DW$149, DW_AT_type(*$C$DW$T$24)
    2966        .dwattr $C$DW$149, DW_AT_name("wordcount")
    2967        .dwattr $C$DW$149, DW_AT_TI_symbol_name("wordcount")
    2968        .dwattr $C$DW$149, DW_AT_data_member_location[DW_OP_plus_uconst 0x2]
    2969        .dwattr $C$DW$149, DW_AT_accessibility(DW_ACCESS_public)
    2970        .dwattr $C$DW$149, DW_AT_decl_file("/home/joerg/retrocmp/dec/UniBone/10.01_base/2_src/shared/m
    2971        .dwattr $C$DW$149, DW_AT_decl_line(0x63)
    2972        .dwattr $C$DW$149, DW_AT_decl_column(0x0b)
    2973
    2974$C$DW$150       .dwtag  DW_TAG_member
    2975        .dwattr $C$DW$150, DW_AT_type(*$C$DW$T$23)
    2976        .dwattr $C$DW$150, DW_AT_name("cur_addr")
    2977        .dwattr $C$DW$150, DW_AT_TI_symbol_name("cur_addr")
    2978        .dwattr $C$DW$150, DW_AT_data_member_location[DW_OP_plus_uconst 0x4]
PRU Assembler Unix v2.3.1 Sun Mar 31 20:55:35 2019

Tools Copyright (c) 2012-2017 Texas Instruments Incorporated
pru1_statemachine_dma.asm                                            PAGE   56

    2979        .dwattr $C$DW$150, DW_AT_accessibility(DW_ACCESS_public)
    2980        .dwattr $C$DW$150, DW_AT_decl_file("/home/joerg/retrocmp/dec/UniBone/10.01_base/2_src/shared/m
    2981        .dwattr $C$DW$150, DW_AT_decl_line(0x64)
    2982        .dwattr $C$DW$150, DW_AT_decl_column(0x0b)
    2983
    2984$C$DW$151       .dwtag  DW_TAG_member
    2985        .dwattr $C$DW$151, DW_AT_type(*$C$DW$T$23)
    2986        .dwattr $C$DW$151, DW_AT_name("startaddr")
    2987        .dwattr $C$DW$151, DW_AT_TI_symbol_name("startaddr")
    2988        .dwattr $C$DW$151, DW_AT_data_member_location[DW_OP_plus_uconst 0x8]
    2989        .dwattr $C$DW$151, DW_AT_accessibility(DW_ACCESS_public)
    2990        .dwattr $C$DW$151, DW_AT_decl_file("/home/joerg/retrocmp/dec/UniBone/10.01_base/2_src/shared/m
    2991        .dwattr $C$DW$151, DW_AT_decl_line(0x65)
    2992        .dwattr $C$DW$151, DW_AT_decl_column(0x0b)
    2993
    2994$C$DW$152       .dwtag  DW_TAG_member
    2995        .dwattr $C$DW$152, DW_AT_type(*$C$DW$T$29)
    2996        .dwattr $C$DW$152, DW_AT_name("words")
    2997        .dwattr $C$DW$152, DW_AT_TI_symbol_name("words")
    2998        .dwattr $C$DW$152, DW_AT_data_member_location[DW_OP_plus_uconst 0xc]
    2999        .dwattr $C$DW$152, DW_AT_accessibility(DW_ACCESS_public)
    3000        .dwattr $C$DW$152, DW_AT_decl_file("/home/joerg/retrocmp/dec/UniBone/10.01_base/2_src/shared/m
    3001        .dwattr $C$DW$152, DW_AT_decl_line(0x66)
    3002        .dwattr $C$DW$152, DW_AT_decl_column(0x0b)
    3003
    3004        .dwattr $C$DW$T$30, DW_AT_decl_file("/home/joerg/retrocmp/dec/UniBone/10.01_base/2_src/shared/
    3005        .dwattr $C$DW$T$30, DW_AT_decl_line(0x5f)
    3006        .dwattr $C$DW$T$30, DW_AT_decl_column(0x10)
    3007        .dwendtag $C$DW$T$30
    3008
    3009$C$DW$T$79      .dwtag  DW_TAG_typedef
    3010        .dwattr $C$DW$T$79, DW_AT_name("mailbox_dma_t")
    3011        .dwattr $C$DW$T$79, DW_AT_type(*$C$DW$T$30)
    3012        .dwattr $C$DW$T$79, DW_AT_language(DW_LANG_C)
    3013        .dwattr $C$DW$T$79, DW_AT_decl_file("/home/joerg/retrocmp/dec/UniBone/10.01_base/2_src/shared/
    3014        .dwattr $C$DW$T$79, DW_AT_decl_line(0x67)
    3015        .dwattr $C$DW$T$79, DW_AT_decl_column(0x03)
    3016
    3017
    3018$C$DW$T$31      .dwtag  DW_TAG_structure_type
    3019        .dwattr $C$DW$T$31, DW_AT_byte_size(0x03)
    3020$C$DW$153       .dwtag  DW_TAG_member
    3021        .dwattr $C$DW$153, DW_AT_type(*$C$DW$T$24)
    3022        .dwattr $C$DW$153, DW_AT_name("vector")
    3023        .dwattr $C$DW$153, DW_AT_TI_symbol_name("vector")
    3024        .dwattr $C$DW$153, DW_AT_data_member_location[DW_OP_plus_uconst 0x0]
    3025        .dwattr $C$DW$153, DW_AT_accessibility(DW_ACCESS_public)
    3026        .dwattr $C$DW$153, DW_AT_decl_file("/home/joerg/retrocmp/dec/UniBone/10.01_base/2_src/shared/m
    3027        .dwattr $C$DW$153, DW_AT_decl_line(0x6b)
    3028        .dwattr $C$DW$153, DW_AT_decl_column(0x0b)
    3029
    3030$C$DW$154       .dwtag  DW_TAG_member
    3031        .dwattr $C$DW$154, DW_AT_type(*$C$DW$T$22)
    3032        .dwattr $C$DW$154, DW_AT_name("priority_bit")
    3033        .dwattr $C$DW$154, DW_AT_TI_symbol_name("priority_bit")
PRU Assembler Unix v2.3.1 Sun Mar 31 20:55:35 2019

Tools Copyright (c) 2012-2017 Texas Instruments Incorporated
pru1_statemachine_dma.asm                                            PAGE   57

    3034        .dwattr $C$DW$154, DW_AT_data_member_location[DW_OP_plus_uconst 0x2]
    3035        .dwattr $C$DW$154, DW_AT_accessibility(DW_ACCESS_public)
    3036        .dwattr $C$DW$154, DW_AT_decl_file("/home/joerg/retrocmp/dec/UniBone/10.01_base/2_src/shared/m
    3037        .dwattr $C$DW$154, DW_AT_decl_line(0x6c)
    3038        .dwattr $C$DW$154, DW_AT_decl_column(0x0a)
    3039
    3040        .dwattr $C$DW$T$31, DW_AT_decl_file("/home/joerg/retrocmp/dec/UniBone/10.01_base/2_src/shared/
    3041        .dwattr $C$DW$T$31, DW_AT_decl_line(0x6a)
    3042        .dwattr $C$DW$T$31, DW_AT_decl_column(0x10)
    3043        .dwendtag $C$DW$T$31
    3044
    3045$C$DW$T$80      .dwtag  DW_TAG_typedef
    3046        .dwattr $C$DW$T$80, DW_AT_name("mailbox_intr_t")
    3047        .dwattr $C$DW$T$80, DW_AT_type(*$C$DW$T$31)
    3048        .dwattr $C$DW$T$80, DW_AT_language(DW_LANG_C)
    3049        .dwattr $C$DW$T$80, DW_AT_decl_file("/home/joerg/retrocmp/dec/UniBone/10.01_base/2_src/shared/
    3050        .dwattr $C$DW$T$80, DW_AT_decl_line(0x6d)
    3051        .dwattr $C$DW$T$80, DW_AT_decl_column(0x03)
    3052
    3053
    3054$C$DW$T$36      .dwtag  DW_TAG_structure_type
    3055        .dwattr $C$DW$T$36, DW_AT_byte_size(0x424)
    3056$C$DW$155       .dwtag  DW_TAG_member
    3057        .dwattr $C$DW$155, DW_AT_type(*$C$DW$T$23)
    3058        .dwattr $C$DW$155, DW_AT_name("arm2pru_req")
    3059        .dwattr $C$DW$155, DW_AT_TI_symbol_name("arm2pru_req")
    3060        .dwattr $C$DW$155, DW_AT_data_member_location[DW_OP_plus_uconst 0x0]
    3061        .dwattr $C$DW$155, DW_AT_accessibility(DW_ACCESS_public)
    3062        .dwattr $C$DW$155, DW_AT_decl_file("/home/joerg/retrocmp/dec/UniBone/10.01_base/2_src/shared/m
    3063        .dwattr $C$DW$155, DW_AT_decl_line(0x90)
    3064        .dwattr $C$DW$155, DW_AT_decl_column(0x0b)
    3065
    3066$C$DW$156       .dwtag  DW_TAG_member
    3067        .dwattr $C$DW$156, DW_AT_type(*$C$DW$T$23)
    3068        .dwattr $C$DW$156, DW_AT_name("arm2pru_resp")
    3069        .dwattr $C$DW$156, DW_AT_TI_symbol_name("arm2pru_resp")
    3070        .dwattr $C$DW$156, DW_AT_data_member_location[DW_OP_plus_uconst 0x4]
    3071        .dwattr $C$DW$156, DW_AT_accessibility(DW_ACCESS_public)
    3072        .dwattr $C$DW$156, DW_AT_decl_file("/home/joerg/retrocmp/dec/UniBone/10.01_base/2_src/shared/m
    3073        .dwattr $C$DW$156, DW_AT_decl_line(0x91)
    3074        .dwattr $C$DW$156, DW_AT_decl_column(0x0b)
    3075
    3076$C$DW$157       .dwtag  DW_TAG_member
    3077        .dwattr $C$DW$157, DW_AT_type(*$C$DW$T$34)
    3078        .dwattr $C$DW$157, DW_AT_name("ddrmem_base_physical")
    3079        .dwattr $C$DW$157, DW_AT_TI_symbol_name("ddrmem_base_physical")
    3080        .dwattr $C$DW$157, DW_AT_data_member_location[DW_OP_plus_uconst 0x8]
    3081        .dwattr $C$DW$157, DW_AT_accessibility(DW_ACCESS_public)
    3082        .dwattr $C$DW$157, DW_AT_decl_file("/home/joerg/retrocmp/dec/UniBone/10.01_base/2_src/shared/m
    3083        .dwattr $C$DW$157, DW_AT_decl_line(0x94)
    3084        .dwattr $C$DW$157, DW_AT_decl_column(0x15)
    3085
    3086$C$DW$158       .dwtag  DW_TAG_member
    3087        .dwattr $C$DW$158, DW_AT_type(*$C$DW$T$35)
    3088        .dwattr $C$DW$158, DW_AT_name("events")
PRU Assembler Unix v2.3.1 Sun Mar 31 20:55:35 2019

Tools Copyright (c) 2012-2017 Texas Instruments Incorporated
pru1_statemachine_dma.asm                                            PAGE   58

    3089        .dwattr $C$DW$158, DW_AT_TI_symbol_name("events")
    3090        .dwattr $C$DW$158, DW_AT_data_member_location[DW_OP_plus_uconst 0xc]
    3091        .dwattr $C$DW$158, DW_AT_accessibility(DW_ACCESS_public)
    3092        .dwattr $C$DW$158, DW_AT_decl_file("/home/joerg/retrocmp/dec/UniBone/10.01_base/2_src/shared/m
    3093        .dwattr $C$DW$158, DW_AT_decl_line(0x97)
    3094        .dwattr $C$DW$158, DW_AT_decl_column(0x13)
    3095
    3096$C$DW$159       .dwtag  DW_TAG_member
    3097        .dwattr $C$DW$159, DW_AT_type(*$C$DW$T$81)
    3098        .dwattr $C$DW$159, DW_AT_name("$P$T1")
    3099        .dwattr $C$DW$159, DW_AT_TI_symbol_name("$P$T1")
    3100        .dwattr $C$DW$159, DW_AT_data_member_location[DW_OP_plus_uconst 0x18]
    3101        .dwattr $C$DW$159, DW_AT_accessibility(DW_ACCESS_public)
    3102        .dwattr $C$DW$159, DW_AT_decl_file("/home/joerg/retrocmp/dec/UniBone/10.01_base/2_src/shared/m
    3103        .dwattr $C$DW$159, DW_AT_decl_line(0x9a)
    3104        .dwattr $C$DW$159, DW_AT_decl_column(0x02)
    3105
    3106        .dwattr $C$DW$T$36, DW_AT_decl_file("/home/joerg/retrocmp/dec/UniBone/10.01_base/2_src/shared/
    3107        .dwattr $C$DW$T$36, DW_AT_decl_line(0x8d)
    3108        .dwattr $C$DW$T$36, DW_AT_decl_column(0x10)
    3109        .dwendtag $C$DW$T$36
    3110
    3111$C$DW$T$129     .dwtag  DW_TAG_volatile_type
    3112        .dwattr $C$DW$T$129, DW_AT_type(*$C$DW$T$36)
    3113
    3114$C$DW$T$130     .dwtag  DW_TAG_pointer_type
    3115        .dwattr $C$DW$T$130, DW_AT_type(*$C$DW$T$129)
    3116        .dwattr $C$DW$T$130, DW_AT_address_class(0x20)
    3117
    3118$C$DW$T$131     .dwtag  DW_TAG_typedef
    3119        .dwattr $C$DW$T$131, DW_AT_name("mailbox_t")
    3120        .dwattr $C$DW$T$131, DW_AT_type(*$C$DW$T$36)
    3121        .dwattr $C$DW$T$131, DW_AT_language(DW_LANG_C)
    3122        .dwattr $C$DW$T$131, DW_AT_decl_file("/home/joerg/retrocmp/dec/UniBone/10.01_base/2_src/shared
    3123        .dwattr $C$DW$T$131, DW_AT_decl_line(0xa1)
    3124        .dwattr $C$DW$T$131, DW_AT_decl_column(0x03)
    3125
    3126$C$DW$T$132     .dwtag  DW_TAG_volatile_type
    3127        .dwattr $C$DW$T$132, DW_AT_type(*$C$DW$T$131)
    3128
    3129
    3130$C$DW$T$38      .dwtag  DW_TAG_structure_type
    3131        .dwattr $C$DW$T$38, DW_AT_byte_size(0x10)
    3132$C$DW$160       .dwtag  DW_TAG_member
    3133        .dwattr $C$DW$160, DW_AT_type(*$C$DW$T$37)
    3134        .dwattr $C$DW$160, DW_AT_name("cur_reg_val")
    3135        .dwattr $C$DW$160, DW_AT_TI_symbol_name("cur_reg_val")
    3136        .dwattr $C$DW$160, DW_AT_data_member_location[DW_OP_plus_uconst 0x0]
    3137        .dwattr $C$DW$160, DW_AT_accessibility(DW_ACCESS_public)
    3138        .dwattr $C$DW$160, DW_AT_decl_file("pru1_buslatches.h")
    3139        .dwattr $C$DW$160, DW_AT_decl_line(0x22)
    3140        .dwattr $C$DW$160, DW_AT_decl_column(0x0a)
    3141
    3142$C$DW$161       .dwtag  DW_TAG_member
    3143        .dwattr $C$DW$161, DW_AT_type(*$C$DW$T$37)
PRU Assembler Unix v2.3.1 Sun Mar 31 20:55:35 2019

Tools Copyright (c) 2012-2017 Texas Instruments Incorporated
pru1_statemachine_dma.asm                                            PAGE   59

    3144        .dwattr $C$DW$161, DW_AT_name("bidi_bitwidth")
    3145        .dwattr $C$DW$161, DW_AT_TI_symbol_name("bidi_bitwidth")
    3146        .dwattr $C$DW$161, DW_AT_data_member_location[DW_OP_plus_uconst 0x8]
    3147        .dwattr $C$DW$161, DW_AT_accessibility(DW_ACCESS_public)
    3148        .dwattr $C$DW$161, DW_AT_decl_file("pru1_buslatches.h")
    3149        .dwattr $C$DW$161, DW_AT_decl_line(0x26)
    3150        .dwattr $C$DW$161, DW_AT_decl_column(0x0a)
    3151
    3152        .dwattr $C$DW$T$38, DW_AT_decl_file("pru1_buslatches.h")
    3153        .dwattr $C$DW$T$38, DW_AT_decl_line(0x21)
    3154        .dwattr $C$DW$T$38, DW_AT_decl_column(0x10)
    3155        .dwendtag $C$DW$T$38
    3156
    3157$C$DW$T$134     .dwtag  DW_TAG_typedef
    3158        .dwattr $C$DW$T$134, DW_AT_name("buslatches_t")
    3159        .dwattr $C$DW$T$134, DW_AT_type(*$C$DW$T$38)
    3160        .dwattr $C$DW$T$134, DW_AT_language(DW_LANG_C)
    3161        .dwattr $C$DW$T$134, DW_AT_decl_file("pru1_buslatches.h")
    3162        .dwattr $C$DW$T$134, DW_AT_decl_line(0x2c)
    3163        .dwattr $C$DW$T$134, DW_AT_decl_column(0x03)
    3164
    3165
    3166$C$DW$T$39      .dwtag  DW_TAG_structure_type
    3167        .dwattr $C$DW$T$39, DW_AT_byte_size(0x04)
    3168$C$DW$162       .dwtag  DW_TAG_member
    3169        .dwattr $C$DW$162, DW_AT_type(*$C$DW$T$11)
    3170        .dwattr $C$DW$162, DW_AT_name("REVID")
    3171        .dwattr $C$DW$162, DW_AT_TI_symbol_name("REVID")
    3172        .dwattr $C$DW$162, DW_AT_bit_offset(0x00)
    3173        .dwattr $C$DW$162, DW_AT_bit_size(0x20)
    3174        .dwattr $C$DW$162, DW_AT_data_member_location[DW_OP_plus_uconst 0x0]
    3175        .dwattr $C$DW$162, DW_AT_accessibility(DW_ACCESS_public)
    3176        .dwattr $C$DW$162, DW_AT_decl_file("/home/joerg/retrocmp/dec/UniBone/91_3rd_party/pru-c-compil
    3177        .dwattr $C$DW$162, DW_AT_decl_line(0x2d)
    3178        .dwattr $C$DW$162, DW_AT_decl_column(0x0d)
    3179
    3180        .dwattr $C$DW$T$39, DW_AT_decl_file("/home/joerg/retrocmp/dec/UniBone/91_3rd_party/pru-c-compi
    3181        .dwattr $C$DW$T$39, DW_AT_decl_line(0x2c)
    3182        .dwattr $C$DW$T$39, DW_AT_decl_column(0x13)
    3183        .dwendtag $C$DW$T$39
    3184
    3185$C$DW$T$83      .dwtag  DW_TAG_volatile_type
    3186        .dwattr $C$DW$T$83, DW_AT_type(*$C$DW$T$39)
    3187
    3188
    3189$C$DW$T$40      .dwtag  DW_TAG_structure_type
    3190        .dwattr $C$DW$T$40, DW_AT_byte_size(0x04)
    3191$C$DW$163       .dwtag  DW_TAG_member
    3192        .dwattr $C$DW$163, DW_AT_type(*$C$DW$T$11)
    3193        .dwattr $C$DW$163, DW_AT_name("IDLE_MODE")
    3194        .dwattr $C$DW$163, DW_AT_TI_symbol_name("IDLE_MODE")
    3195        .dwattr $C$DW$163, DW_AT_bit_offset(0x1e)
    3196        .dwattr $C$DW$163, DW_AT_bit_size(0x02)
    3197        .dwattr $C$DW$163, DW_AT_data_member_location[DW_OP_plus_uconst 0x0]
    3198        .dwattr $C$DW$163, DW_AT_accessibility(DW_ACCESS_public)
PRU Assembler Unix v2.3.1 Sun Mar 31 20:55:35 2019

Tools Copyright (c) 2012-2017 Texas Instruments Incorporated
pru1_statemachine_dma.asm                                            PAGE   60

    3199        .dwattr $C$DW$163, DW_AT_decl_file("/home/joerg/retrocmp/dec/UniBone/91_3rd_party/pru-c-compil
    3200        .dwattr $C$DW$163, DW_AT_decl_line(0x37)
    3201        .dwattr $C$DW$163, DW_AT_decl_column(0x0d)
    3202
    3203$C$DW$164       .dwtag  DW_TAG_member
    3204        .dwattr $C$DW$164, DW_AT_type(*$C$DW$T$11)
    3205        .dwattr $C$DW$164, DW_AT_name("STANDBY_MODE")
    3206        .dwattr $C$DW$164, DW_AT_TI_symbol_name("STANDBY_MODE")
    3207        .dwattr $C$DW$164, DW_AT_bit_offset(0x1c)
    3208        .dwattr $C$DW$164, DW_AT_bit_size(0x02)
    3209        .dwattr $C$DW$164, DW_AT_data_member_location[DW_OP_plus_uconst 0x0]
    3210        .dwattr $C$DW$164, DW_AT_accessibility(DW_ACCESS_public)
    3211        .dwattr $C$DW$164, DW_AT_decl_file("/home/joerg/retrocmp/dec/UniBone/91_3rd_party/pru-c-compil
    3212        .dwattr $C$DW$164, DW_AT_decl_line(0x38)
    3213        .dwattr $C$DW$164, DW_AT_decl_column(0x0d)
    3214
    3215$C$DW$165       .dwtag  DW_TAG_member
    3216        .dwattr $C$DW$165, DW_AT_type(*$C$DW$T$11)
    3217        .dwattr $C$DW$165, DW_AT_name("STANDBY_INIT")
    3218        .dwattr $C$DW$165, DW_AT_TI_symbol_name("STANDBY_INIT")
    3219        .dwattr $C$DW$165, DW_AT_bit_offset(0x1b)
    3220        .dwattr $C$DW$165, DW_AT_bit_size(0x01)
    3221        .dwattr $C$DW$165, DW_AT_data_member_location[DW_OP_plus_uconst 0x0]
    3222        .dwattr $C$DW$165, DW_AT_accessibility(DW_ACCESS_public)
    3223        .dwattr $C$DW$165, DW_AT_decl_file("/home/joerg/retrocmp/dec/UniBone/91_3rd_party/pru-c-compil
    3224        .dwattr $C$DW$165, DW_AT_decl_line(0x39)
    3225        .dwattr $C$DW$165, DW_AT_decl_column(0x0d)
    3226
    3227$C$DW$166       .dwtag  DW_TAG_member
    3228        .dwattr $C$DW$166, DW_AT_type(*$C$DW$T$11)
    3229        .dwattr $C$DW$166, DW_AT_name("SUB_MWAIT")
    3230        .dwattr $C$DW$166, DW_AT_TI_symbol_name("SUB_MWAIT")
    3231        .dwattr $C$DW$166, DW_AT_bit_offset(0x1a)
    3232        .dwattr $C$DW$166, DW_AT_bit_size(0x01)
    3233        .dwattr $C$DW$166, DW_AT_data_member_location[DW_OP_plus_uconst 0x0]
    3234        .dwattr $C$DW$166, DW_AT_accessibility(DW_ACCESS_public)
    3235        .dwattr $C$DW$166, DW_AT_decl_file("/home/joerg/retrocmp/dec/UniBone/91_3rd_party/pru-c-compil
    3236        .dwattr $C$DW$166, DW_AT_decl_line(0x3a)
    3237        .dwattr $C$DW$166, DW_AT_decl_column(0x0d)
    3238
    3239$C$DW$167       .dwtag  DW_TAG_member
    3240        .dwattr $C$DW$167, DW_AT_type(*$C$DW$T$11)
    3241        .dwattr $C$DW$167, DW_AT_name("rsvd6")
    3242        .dwattr $C$DW$167, DW_AT_TI_symbol_name("rsvd6")
    3243        .dwattr $C$DW$167, DW_AT_bit_offset(0x00)
    3244        .dwattr $C$DW$167, DW_AT_bit_size(0x1a)
    3245        .dwattr $C$DW$167, DW_AT_data_member_location[DW_OP_plus_uconst 0x0]
    3246        .dwattr $C$DW$167, DW_AT_accessibility(DW_ACCESS_public)
    3247        .dwattr $C$DW$167, DW_AT_decl_file("/home/joerg/retrocmp/dec/UniBone/91_3rd_party/pru-c-compil
    3248        .dwattr $C$DW$167, DW_AT_decl_line(0x3b)
    3249        .dwattr $C$DW$167, DW_AT_decl_column(0x0d)
    3250
    3251        .dwattr $C$DW$T$40, DW_AT_decl_file("/home/joerg/retrocmp/dec/UniBone/91_3rd_party/pru-c-compi
    3252        .dwattr $C$DW$T$40, DW_AT_decl_line(0x36)
    3253        .dwattr $C$DW$T$40, DW_AT_decl_column(0x13)
PRU Assembler Unix v2.3.1 Sun Mar 31 20:55:35 2019

Tools Copyright (c) 2012-2017 Texas Instruments Incorporated
pru1_statemachine_dma.asm                                            PAGE   61

    3254        .dwendtag $C$DW$T$40
    3255
    3256$C$DW$T$85      .dwtag  DW_TAG_volatile_type
    3257        .dwattr $C$DW$T$85, DW_AT_type(*$C$DW$T$40)
    3258
    3259
    3260$C$DW$T$41      .dwtag  DW_TAG_structure_type
    3261        .dwattr $C$DW$T$41, DW_AT_byte_size(0x04)
    3262$C$DW$168       .dwtag  DW_TAG_member
    3263        .dwattr $C$DW$168, DW_AT_type(*$C$DW$T$11)
    3264        .dwattr $C$DW$168, DW_AT_name("PRU0_GPI_MODE")
    3265        .dwattr $C$DW$168, DW_AT_TI_symbol_name("PRU0_GPI_MODE")
    3266        .dwattr $C$DW$168, DW_AT_bit_offset(0x1e)
    3267        .dwattr $C$DW$168, DW_AT_bit_size(0x02)
    3268        .dwattr $C$DW$168, DW_AT_data_member_location[DW_OP_plus_uconst 0x0]
    3269        .dwattr $C$DW$168, DW_AT_accessibility(DW_ACCESS_public)
    3270        .dwattr $C$DW$168, DW_AT_decl_file("/home/joerg/retrocmp/dec/UniBone/91_3rd_party/pru-c-compil
    3271        .dwattr $C$DW$168, DW_AT_decl_line(0x45)
    3272        .dwattr $C$DW$168, DW_AT_decl_column(0x0d)
    3273
    3274$C$DW$169       .dwtag  DW_TAG_member
    3275        .dwattr $C$DW$169, DW_AT_type(*$C$DW$T$11)
    3276        .dwattr $C$DW$169, DW_AT_name("PRU0_GPI_CLK_MODE")
    3277        .dwattr $C$DW$169, DW_AT_TI_symbol_name("PRU0_GPI_CLK_MODE")
    3278        .dwattr $C$DW$169, DW_AT_bit_offset(0x1d)
    3279        .dwattr $C$DW$169, DW_AT_bit_size(0x01)
    3280        .dwattr $C$DW$169, DW_AT_data_member_location[DW_OP_plus_uconst 0x0]
    3281        .dwattr $C$DW$169, DW_AT_accessibility(DW_ACCESS_public)
    3282        .dwattr $C$DW$169, DW_AT_decl_file("/home/joerg/retrocmp/dec/UniBone/91_3rd_party/pru-c-compil
    3283        .dwattr $C$DW$169, DW_AT_decl_line(0x46)
    3284        .dwattr $C$DW$169, DW_AT_decl_column(0x0d)
    3285
    3286$C$DW$170       .dwtag  DW_TAG_member
    3287        .dwattr $C$DW$170, DW_AT_type(*$C$DW$T$11)
    3288        .dwattr $C$DW$170, DW_AT_name("PRU0_GPI_DIV0")
    3289        .dwattr $C$DW$170, DW_AT_TI_symbol_name("PRU0_GPI_DIV0")
    3290        .dwattr $C$DW$170, DW_AT_bit_offset(0x18)
    3291        .dwattr $C$DW$170, DW_AT_bit_size(0x05)
    3292        .dwattr $C$DW$170, DW_AT_data_member_location[DW_OP_plus_uconst 0x0]
    3293        .dwattr $C$DW$170, DW_AT_accessibility(DW_ACCESS_public)
    3294        .dwattr $C$DW$170, DW_AT_decl_file("/home/joerg/retrocmp/dec/UniBone/91_3rd_party/pru-c-compil
    3295        .dwattr $C$DW$170, DW_AT_decl_line(0x47)
    3296        .dwattr $C$DW$170, DW_AT_decl_column(0x0d)
    3297
    3298$C$DW$171       .dwtag  DW_TAG_member
    3299        .dwattr $C$DW$171, DW_AT_type(*$C$DW$T$11)
    3300        .dwattr $C$DW$171, DW_AT_name("PRU0_GPI_DIV1")
    3301        .dwattr $C$DW$171, DW_AT_TI_symbol_name("PRU0_GPI_DIV1")
    3302        .dwattr $C$DW$171, DW_AT_bit_offset(0x13)
    3303        .dwattr $C$DW$171, DW_AT_bit_size(0x05)
    3304        .dwattr $C$DW$171, DW_AT_data_member_location[DW_OP_plus_uconst 0x0]
    3305        .dwattr $C$DW$171, DW_AT_accessibility(DW_ACCESS_public)
    3306        .dwattr $C$DW$171, DW_AT_decl_file("/home/joerg/retrocmp/dec/UniBone/91_3rd_party/pru-c-compil
    3307        .dwattr $C$DW$171, DW_AT_decl_line(0x48)
    3308        .dwattr $C$DW$171, DW_AT_decl_column(0x0d)
PRU Assembler Unix v2.3.1 Sun Mar 31 20:55:35 2019

Tools Copyright (c) 2012-2017 Texas Instruments Incorporated
pru1_statemachine_dma.asm                                            PAGE   62

    3309
    3310$C$DW$172       .dwtag  DW_TAG_member
    3311        .dwattr $C$DW$172, DW_AT_type(*$C$DW$T$11)
    3312        .dwattr $C$DW$172, DW_AT_name("PRU0_GPI_SB")
    3313        .dwattr $C$DW$172, DW_AT_TI_symbol_name("PRU0_GPI_SB")
    3314        .dwattr $C$DW$172, DW_AT_bit_offset(0x12)
    3315        .dwattr $C$DW$172, DW_AT_bit_size(0x01)
    3316        .dwattr $C$DW$172, DW_AT_data_member_location[DW_OP_plus_uconst 0x0]
    3317        .dwattr $C$DW$172, DW_AT_accessibility(DW_ACCESS_public)
    3318        .dwattr $C$DW$172, DW_AT_decl_file("/home/joerg/retrocmp/dec/UniBone/91_3rd_party/pru-c-compil
    3319        .dwattr $C$DW$172, DW_AT_decl_line(0x49)
    3320        .dwattr $C$DW$172, DW_AT_decl_column(0x0d)
    3321
    3322$C$DW$173       .dwtag  DW_TAG_member
    3323        .dwattr $C$DW$173, DW_AT_type(*$C$DW$T$11)
    3324        .dwattr $C$DW$173, DW_AT_name("PRU0_GPO_MODE")
    3325        .dwattr $C$DW$173, DW_AT_TI_symbol_name("PRU0_GPO_MODE")
    3326        .dwattr $C$DW$173, DW_AT_bit_offset(0x11)
    3327        .dwattr $C$DW$173, DW_AT_bit_size(0x01)
    3328        .dwattr $C$DW$173, DW_AT_data_member_location[DW_OP_plus_uconst 0x0]
    3329        .dwattr $C$DW$173, DW_AT_accessibility(DW_ACCESS_public)
    3330        .dwattr $C$DW$173, DW_AT_decl_file("/home/joerg/retrocmp/dec/UniBone/91_3rd_party/pru-c-compil
    3331        .dwattr $C$DW$173, DW_AT_decl_line(0x4a)
    3332        .dwattr $C$DW$173, DW_AT_decl_column(0x0d)
    3333
    3334$C$DW$174       .dwtag  DW_TAG_member
    3335        .dwattr $C$DW$174, DW_AT_type(*$C$DW$T$11)
    3336        .dwattr $C$DW$174, DW_AT_name("PRU0_GPO_DIV0")
    3337        .dwattr $C$DW$174, DW_AT_TI_symbol_name("PRU0_GPO_DIV0")
    3338        .dwattr $C$DW$174, DW_AT_bit_offset(0x0c)
    3339        .dwattr $C$DW$174, DW_AT_bit_size(0x05)
    3340        .dwattr $C$DW$174, DW_AT_data_member_location[DW_OP_plus_uconst 0x0]
    3341        .dwattr $C$DW$174, DW_AT_accessibility(DW_ACCESS_public)
    3342        .dwattr $C$DW$174, DW_AT_decl_file("/home/joerg/retrocmp/dec/UniBone/91_3rd_party/pru-c-compil
    3343        .dwattr $C$DW$174, DW_AT_decl_line(0x4b)
    3344        .dwattr $C$DW$174, DW_AT_decl_column(0x0d)
    3345
    3346$C$DW$175       .dwtag  DW_TAG_member
    3347        .dwattr $C$DW$175, DW_AT_type(*$C$DW$T$11)
    3348        .dwattr $C$DW$175, DW_AT_name("PRU0_GPO_DIV1")
    3349        .dwattr $C$DW$175, DW_AT_TI_symbol_name("PRU0_GPO_DIV1")
    3350        .dwattr $C$DW$175, DW_AT_bit_offset(0x07)
    3351        .dwattr $C$DW$175, DW_AT_bit_size(0x05)
    3352        .dwattr $C$DW$175, DW_AT_data_member_location[DW_OP_plus_uconst 0x0]
    3353        .dwattr $C$DW$175, DW_AT_accessibility(DW_ACCESS_public)
    3354        .dwattr $C$DW$175, DW_AT_decl_file("/home/joerg/retrocmp/dec/UniBone/91_3rd_party/pru-c-compil
    3355        .dwattr $C$DW$175, DW_AT_decl_line(0x4c)
    3356        .dwattr $C$DW$175, DW_AT_decl_column(0x0d)
    3357
    3358$C$DW$176       .dwtag  DW_TAG_member
    3359        .dwattr $C$DW$176, DW_AT_type(*$C$DW$T$11)
    3360        .dwattr $C$DW$176, DW_AT_name("PRU0_GPO_SH_SEL")
    3361        .dwattr $C$DW$176, DW_AT_TI_symbol_name("PRU0_GPO_SH_SEL")
    3362        .dwattr $C$DW$176, DW_AT_bit_offset(0x06)
    3363        .dwattr $C$DW$176, DW_AT_bit_size(0x01)
PRU Assembler Unix v2.3.1 Sun Mar 31 20:55:35 2019

Tools Copyright (c) 2012-2017 Texas Instruments Incorporated
pru1_statemachine_dma.asm                                            PAGE   63

    3364        .dwattr $C$DW$176, DW_AT_data_member_location[DW_OP_plus_uconst 0x0]
    3365        .dwattr $C$DW$176, DW_AT_accessibility(DW_ACCESS_public)
    3366        .dwattr $C$DW$176, DW_AT_decl_file("/home/joerg/retrocmp/dec/UniBone/91_3rd_party/pru-c-compil
    3367        .dwattr $C$DW$176, DW_AT_decl_line(0x4d)
    3368        .dwattr $C$DW$176, DW_AT_decl_column(0x0d)
    3369
    3370$C$DW$177       .dwtag  DW_TAG_member
    3371        .dwattr $C$DW$177, DW_AT_type(*$C$DW$T$11)
    3372        .dwattr $C$DW$177, DW_AT_name("rsvd26")
    3373        .dwattr $C$DW$177, DW_AT_TI_symbol_name("rsvd26")
    3374        .dwattr $C$DW$177, DW_AT_bit_offset(0x00)
    3375        .dwattr $C$DW$177, DW_AT_bit_size(0x06)
    3376        .dwattr $C$DW$177, DW_AT_data_member_location[DW_OP_plus_uconst 0x0]
    3377        .dwattr $C$DW$177, DW_AT_accessibility(DW_ACCESS_public)
    3378        .dwattr $C$DW$177, DW_AT_decl_file("/home/joerg/retrocmp/dec/UniBone/91_3rd_party/pru-c-compil
    3379        .dwattr $C$DW$177, DW_AT_decl_line(0x4e)
    3380        .dwattr $C$DW$177, DW_AT_decl_column(0x0d)
    3381
    3382        .dwattr $C$DW$T$41, DW_AT_decl_file("/home/joerg/retrocmp/dec/UniBone/91_3rd_party/pru-c-compi
    3383        .dwattr $C$DW$T$41, DW_AT_decl_line(0x44)
    3384        .dwattr $C$DW$T$41, DW_AT_decl_column(0x13)
    3385        .dwendtag $C$DW$T$41
    3386
    3387$C$DW$T$87      .dwtag  DW_TAG_volatile_type
    3388        .dwattr $C$DW$T$87, DW_AT_type(*$C$DW$T$41)
    3389
    3390
    3391$C$DW$T$42      .dwtag  DW_TAG_structure_type
    3392        .dwattr $C$DW$T$42, DW_AT_byte_size(0x04)
    3393$C$DW$178       .dwtag  DW_TAG_member
    3394        .dwattr $C$DW$178, DW_AT_type(*$C$DW$T$11)
    3395        .dwattr $C$DW$178, DW_AT_name("PRU1_GPI_MODE")
    3396        .dwattr $C$DW$178, DW_AT_TI_symbol_name("PRU1_GPI_MODE")
    3397        .dwattr $C$DW$178, DW_AT_bit_offset(0x1e)
    3398        .dwattr $C$DW$178, DW_AT_bit_size(0x02)
    3399        .dwattr $C$DW$178, DW_AT_data_member_location[DW_OP_plus_uconst 0x0]
    3400        .dwattr $C$DW$178, DW_AT_accessibility(DW_ACCESS_public)
    3401        .dwattr $C$DW$178, DW_AT_decl_file("/home/joerg/retrocmp/dec/UniBone/91_3rd_party/pru-c-compil
    3402        .dwattr $C$DW$178, DW_AT_decl_line(0x58)
    3403        .dwattr $C$DW$178, DW_AT_decl_column(0x0d)
    3404
    3405$C$DW$179       .dwtag  DW_TAG_member
    3406        .dwattr $C$DW$179, DW_AT_type(*$C$DW$T$11)
    3407        .dwattr $C$DW$179, DW_AT_name("PRU1_GPI_CLK_MODE")
    3408        .dwattr $C$DW$179, DW_AT_TI_symbol_name("PRU1_GPI_CLK_MODE")
    3409        .dwattr $C$DW$179, DW_AT_bit_offset(0x1d)
    3410        .dwattr $C$DW$179, DW_AT_bit_size(0x01)
    3411        .dwattr $C$DW$179, DW_AT_data_member_location[DW_OP_plus_uconst 0x0]
    3412        .dwattr $C$DW$179, DW_AT_accessibility(DW_ACCESS_public)
    3413        .dwattr $C$DW$179, DW_AT_decl_file("/home/joerg/retrocmp/dec/UniBone/91_3rd_party/pru-c-compil
    3414        .dwattr $C$DW$179, DW_AT_decl_line(0x59)
    3415        .dwattr $C$DW$179, DW_AT_decl_column(0x0d)
    3416
    3417$C$DW$180       .dwtag  DW_TAG_member
    3418        .dwattr $C$DW$180, DW_AT_type(*$C$DW$T$11)
PRU Assembler Unix v2.3.1 Sun Mar 31 20:55:35 2019

Tools Copyright (c) 2012-2017 Texas Instruments Incorporated
pru1_statemachine_dma.asm                                            PAGE   64

    3419        .dwattr $C$DW$180, DW_AT_name("PRU1_GPI_DIV0")
    3420        .dwattr $C$DW$180, DW_AT_TI_symbol_name("PRU1_GPI_DIV0")
    3421        .dwattr $C$DW$180, DW_AT_bit_offset(0x18)
    3422        .dwattr $C$DW$180, DW_AT_bit_size(0x05)
    3423        .dwattr $C$DW$180, DW_AT_data_member_location[DW_OP_plus_uconst 0x0]
    3424        .dwattr $C$DW$180, DW_AT_accessibility(DW_ACCESS_public)
    3425        .dwattr $C$DW$180, DW_AT_decl_file("/home/joerg/retrocmp/dec/UniBone/91_3rd_party/pru-c-compil
    3426        .dwattr $C$DW$180, DW_AT_decl_line(0x5a)
    3427        .dwattr $C$DW$180, DW_AT_decl_column(0x0d)
    3428
    3429$C$DW$181       .dwtag  DW_TAG_member
    3430        .dwattr $C$DW$181, DW_AT_type(*$C$DW$T$11)
    3431        .dwattr $C$DW$181, DW_AT_name("PRU1_GPI_DIV1")
    3432        .dwattr $C$DW$181, DW_AT_TI_symbol_name("PRU1_GPI_DIV1")
    3433        .dwattr $C$DW$181, DW_AT_bit_offset(0x13)
    3434        .dwattr $C$DW$181, DW_AT_bit_size(0x05)
    3435        .dwattr $C$DW$181, DW_AT_data_member_location[DW_OP_plus_uconst 0x0]
    3436        .dwattr $C$DW$181, DW_AT_accessibility(DW_ACCESS_public)
    3437        .dwattr $C$DW$181, DW_AT_decl_file("/home/joerg/retrocmp/dec/UniBone/91_3rd_party/pru-c-compil
    3438        .dwattr $C$DW$181, DW_AT_decl_line(0x5b)
    3439        .dwattr $C$DW$181, DW_AT_decl_column(0x0d)
    3440
    3441$C$DW$182       .dwtag  DW_TAG_member
    3442        .dwattr $C$DW$182, DW_AT_type(*$C$DW$T$11)
    3443        .dwattr $C$DW$182, DW_AT_name("PRU1_GPI_SB")
    3444        .dwattr $C$DW$182, DW_AT_TI_symbol_name("PRU1_GPI_SB")
    3445        .dwattr $C$DW$182, DW_AT_bit_offset(0x12)
    3446        .dwattr $C$DW$182, DW_AT_bit_size(0x01)
    3447        .dwattr $C$DW$182, DW_AT_data_member_location[DW_OP_plus_uconst 0x0]
    3448        .dwattr $C$DW$182, DW_AT_accessibility(DW_ACCESS_public)
    3449        .dwattr $C$DW$182, DW_AT_decl_file("/home/joerg/retrocmp/dec/UniBone/91_3rd_party/pru-c-compil
    3450        .dwattr $C$DW$182, DW_AT_decl_line(0x5c)
    3451        .dwattr $C$DW$182, DW_AT_decl_column(0x0d)
    3452
    3453$C$DW$183       .dwtag  DW_TAG_member
    3454        .dwattr $C$DW$183, DW_AT_type(*$C$DW$T$11)
    3455        .dwattr $C$DW$183, DW_AT_name("PRU1_GPO_MODE")
    3456        .dwattr $C$DW$183, DW_AT_TI_symbol_name("PRU1_GPO_MODE")
    3457        .dwattr $C$DW$183, DW_AT_bit_offset(0x11)
    3458        .dwattr $C$DW$183, DW_AT_bit_size(0x01)
    3459        .dwattr $C$DW$183, DW_AT_data_member_location[DW_OP_plus_uconst 0x0]
    3460        .dwattr $C$DW$183, DW_AT_accessibility(DW_ACCESS_public)
    3461        .dwattr $C$DW$183, DW_AT_decl_file("/home/joerg/retrocmp/dec/UniBone/91_3rd_party/pru-c-compil
    3462        .dwattr $C$DW$183, DW_AT_decl_line(0x5d)
    3463        .dwattr $C$DW$183, DW_AT_decl_column(0x0d)
    3464
    3465$C$DW$184       .dwtag  DW_TAG_member
    3466        .dwattr $C$DW$184, DW_AT_type(*$C$DW$T$11)
    3467        .dwattr $C$DW$184, DW_AT_name("PRU1_GPO_DIV0")
    3468        .dwattr $C$DW$184, DW_AT_TI_symbol_name("PRU1_GPO_DIV0")
    3469        .dwattr $C$DW$184, DW_AT_bit_offset(0x0c)
    3470        .dwattr $C$DW$184, DW_AT_bit_size(0x05)
    3471        .dwattr $C$DW$184, DW_AT_data_member_location[DW_OP_plus_uconst 0x0]
    3472        .dwattr $C$DW$184, DW_AT_accessibility(DW_ACCESS_public)
    3473        .dwattr $C$DW$184, DW_AT_decl_file("/home/joerg/retrocmp/dec/UniBone/91_3rd_party/pru-c-compil
PRU Assembler Unix v2.3.1 Sun Mar 31 20:55:35 2019

Tools Copyright (c) 2012-2017 Texas Instruments Incorporated
pru1_statemachine_dma.asm                                            PAGE   65

    3474        .dwattr $C$DW$184, DW_AT_decl_line(0x5e)
    3475        .dwattr $C$DW$184, DW_AT_decl_column(0x0d)
    3476
    3477$C$DW$185       .dwtag  DW_TAG_member
    3478        .dwattr $C$DW$185, DW_AT_type(*$C$DW$T$11)
    3479        .dwattr $C$DW$185, DW_AT_name("PRU1_GPO_DIV1")
    3480        .dwattr $C$DW$185, DW_AT_TI_symbol_name("PRU1_GPO_DIV1")
    3481        .dwattr $C$DW$185, DW_AT_bit_offset(0x07)
    3482        .dwattr $C$DW$185, DW_AT_bit_size(0x05)
    3483        .dwattr $C$DW$185, DW_AT_data_member_location[DW_OP_plus_uconst 0x0]
    3484        .dwattr $C$DW$185, DW_AT_accessibility(DW_ACCESS_public)
    3485        .dwattr $C$DW$185, DW_AT_decl_file("/home/joerg/retrocmp/dec/UniBone/91_3rd_party/pru-c-compil
    3486        .dwattr $C$DW$185, DW_AT_decl_line(0x5f)
    3487        .dwattr $C$DW$185, DW_AT_decl_column(0x0d)
    3488
    3489$C$DW$186       .dwtag  DW_TAG_member
    3490        .dwattr $C$DW$186, DW_AT_type(*$C$DW$T$11)
    3491        .dwattr $C$DW$186, DW_AT_name("PRU1_GPO_SH_SEL")
    3492        .dwattr $C$DW$186, DW_AT_TI_symbol_name("PRU1_GPO_SH_SEL")
    3493        .dwattr $C$DW$186, DW_AT_bit_offset(0x06)
    3494        .dwattr $C$DW$186, DW_AT_bit_size(0x01)
    3495        .dwattr $C$DW$186, DW_AT_data_member_location[DW_OP_plus_uconst 0x0]
    3496        .dwattr $C$DW$186, DW_AT_accessibility(DW_ACCESS_public)
    3497        .dwattr $C$DW$186, DW_AT_decl_file("/home/joerg/retrocmp/dec/UniBone/91_3rd_party/pru-c-compil
    3498        .dwattr $C$DW$186, DW_AT_decl_line(0x60)
    3499        .dwattr $C$DW$186, DW_AT_decl_column(0x0d)
    3500
    3501$C$DW$187       .dwtag  DW_TAG_member
    3502        .dwattr $C$DW$187, DW_AT_type(*$C$DW$T$11)
    3503        .dwattr $C$DW$187, DW_AT_name("rsvd26")
    3504        .dwattr $C$DW$187, DW_AT_TI_symbol_name("rsvd26")
    3505        .dwattr $C$DW$187, DW_AT_bit_offset(0x00)
    3506        .dwattr $C$DW$187, DW_AT_bit_size(0x06)
    3507        .dwattr $C$DW$187, DW_AT_data_member_location[DW_OP_plus_uconst 0x0]
    3508        .dwattr $C$DW$187, DW_AT_accessibility(DW_ACCESS_public)
    3509        .dwattr $C$DW$187, DW_AT_decl_file("/home/joerg/retrocmp/dec/UniBone/91_3rd_party/pru-c-compil
    3510        .dwattr $C$DW$187, DW_AT_decl_line(0x61)
    3511        .dwattr $C$DW$187, DW_AT_decl_column(0x0d)
    3512
    3513        .dwattr $C$DW$T$42, DW_AT_decl_file("/home/joerg/retrocmp/dec/UniBone/91_3rd_party/pru-c-compi
    3514        .dwattr $C$DW$T$42, DW_AT_decl_line(0x57)
    3515        .dwattr $C$DW$T$42, DW_AT_decl_column(0x13)
    3516        .dwendtag $C$DW$T$42
    3517
    3518$C$DW$T$89      .dwtag  DW_TAG_volatile_type
    3519        .dwattr $C$DW$T$89, DW_AT_type(*$C$DW$T$42)
    3520
    3521
    3522$C$DW$T$43      .dwtag  DW_TAG_structure_type
    3523        .dwattr $C$DW$T$43, DW_AT_byte_size(0x04)
    3524$C$DW$188       .dwtag  DW_TAG_member
    3525        .dwattr $C$DW$188, DW_AT_type(*$C$DW$T$11)
    3526        .dwattr $C$DW$188, DW_AT_name("PRU0_CLK_STOP_REQ")
    3527        .dwattr $C$DW$188, DW_AT_TI_symbol_name("PRU0_CLK_STOP_REQ")
    3528        .dwattr $C$DW$188, DW_AT_bit_offset(0x1f)
PRU Assembler Unix v2.3.1 Sun Mar 31 20:55:35 2019

Tools Copyright (c) 2012-2017 Texas Instruments Incorporated
pru1_statemachine_dma.asm                                            PAGE   66

    3529        .dwattr $C$DW$188, DW_AT_bit_size(0x01)
    3530        .dwattr $C$DW$188, DW_AT_data_member_location[DW_OP_plus_uconst 0x0]
    3531        .dwattr $C$DW$188, DW_AT_accessibility(DW_ACCESS_public)
    3532        .dwattr $C$DW$188, DW_AT_decl_file("/home/joerg/retrocmp/dec/UniBone/91_3rd_party/pru-c-compil
    3533        .dwattr $C$DW$188, DW_AT_decl_line(0x6b)
    3534        .dwattr $C$DW$188, DW_AT_decl_column(0x0d)
    3535
    3536$C$DW$189       .dwtag  DW_TAG_member
    3537        .dwattr $C$DW$189, DW_AT_type(*$C$DW$T$11)
    3538        .dwattr $C$DW$189, DW_AT_name("PRU0_CLK_STOP_ACK")
    3539        .dwattr $C$DW$189, DW_AT_TI_symbol_name("PRU0_CLK_STOP_ACK")
    3540        .dwattr $C$DW$189, DW_AT_bit_offset(0x1e)
    3541        .dwattr $C$DW$189, DW_AT_bit_size(0x01)
    3542        .dwattr $C$DW$189, DW_AT_data_member_location[DW_OP_plus_uconst 0x0]
    3543        .dwattr $C$DW$189, DW_AT_accessibility(DW_ACCESS_public)
    3544        .dwattr $C$DW$189, DW_AT_decl_file("/home/joerg/retrocmp/dec/UniBone/91_3rd_party/pru-c-compil
    3545        .dwattr $C$DW$189, DW_AT_decl_line(0x6c)
    3546        .dwattr $C$DW$189, DW_AT_decl_column(0x0d)
    3547
    3548$C$DW$190       .dwtag  DW_TAG_member
    3549        .dwattr $C$DW$190, DW_AT_type(*$C$DW$T$11)
    3550        .dwattr $C$DW$190, DW_AT_name("PRU0_CLK_EN")
    3551        .dwattr $C$DW$190, DW_AT_TI_symbol_name("PRU0_CLK_EN")
    3552        .dwattr $C$DW$190, DW_AT_bit_offset(0x1d)
    3553        .dwattr $C$DW$190, DW_AT_bit_size(0x01)
    3554        .dwattr $C$DW$190, DW_AT_data_member_location[DW_OP_plus_uconst 0x0]
    3555        .dwattr $C$DW$190, DW_AT_accessibility(DW_ACCESS_public)
    3556        .dwattr $C$DW$190, DW_AT_decl_file("/home/joerg/retrocmp/dec/UniBone/91_3rd_party/pru-c-compil
    3557        .dwattr $C$DW$190, DW_AT_decl_line(0x6d)
    3558        .dwattr $C$DW$190, DW_AT_decl_column(0x0d)
    3559
    3560$C$DW$191       .dwtag  DW_TAG_member
    3561        .dwattr $C$DW$191, DW_AT_type(*$C$DW$T$11)
    3562        .dwattr $C$DW$191, DW_AT_name("PRU1_CLK_STOP_REQ")
    3563        .dwattr $C$DW$191, DW_AT_TI_symbol_name("PRU1_CLK_STOP_REQ")
    3564        .dwattr $C$DW$191, DW_AT_bit_offset(0x1c)
    3565        .dwattr $C$DW$191, DW_AT_bit_size(0x01)
    3566        .dwattr $C$DW$191, DW_AT_data_member_location[DW_OP_plus_uconst 0x0]
    3567        .dwattr $C$DW$191, DW_AT_accessibility(DW_ACCESS_public)
    3568        .dwattr $C$DW$191, DW_AT_decl_file("/home/joerg/retrocmp/dec/UniBone/91_3rd_party/pru-c-compil
    3569        .dwattr $C$DW$191, DW_AT_decl_line(0x6e)
    3570        .dwattr $C$DW$191, DW_AT_decl_column(0x0d)
    3571
    3572$C$DW$192       .dwtag  DW_TAG_member
    3573        .dwattr $C$DW$192, DW_AT_type(*$C$DW$T$11)
    3574        .dwattr $C$DW$192, DW_AT_name("PRU1_CLK_STOP_ACK")
    3575        .dwattr $C$DW$192, DW_AT_TI_symbol_name("PRU1_CLK_STOP_ACK")
    3576        .dwattr $C$DW$192, DW_AT_bit_offset(0x1b)
    3577        .dwattr $C$DW$192, DW_AT_bit_size(0x01)
    3578        .dwattr $C$DW$192, DW_AT_data_member_location[DW_OP_plus_uconst 0x0]
    3579        .dwattr $C$DW$192, DW_AT_accessibility(DW_ACCESS_public)
    3580        .dwattr $C$DW$192, DW_AT_decl_file("/home/joerg/retrocmp/dec/UniBone/91_3rd_party/pru-c-compil
    3581        .dwattr $C$DW$192, DW_AT_decl_line(0x6f)
    3582        .dwattr $C$DW$192, DW_AT_decl_column(0x0d)
    3583
PRU Assembler Unix v2.3.1 Sun Mar 31 20:55:35 2019

Tools Copyright (c) 2012-2017 Texas Instruments Incorporated
pru1_statemachine_dma.asm                                            PAGE   67

    3584$C$DW$193       .dwtag  DW_TAG_member
    3585        .dwattr $C$DW$193, DW_AT_type(*$C$DW$T$11)
    3586        .dwattr $C$DW$193, DW_AT_name("PRU1_CLK_EN")
    3587        .dwattr $C$DW$193, DW_AT_TI_symbol_name("PRU1_CLK_EN")
    3588        .dwattr $C$DW$193, DW_AT_bit_offset(0x1a)
    3589        .dwattr $C$DW$193, DW_AT_bit_size(0x01)
    3590        .dwattr $C$DW$193, DW_AT_data_member_location[DW_OP_plus_uconst 0x0]
    3591        .dwattr $C$DW$193, DW_AT_accessibility(DW_ACCESS_public)
    3592        .dwattr $C$DW$193, DW_AT_decl_file("/home/joerg/retrocmp/dec/UniBone/91_3rd_party/pru-c-compil
    3593        .dwattr $C$DW$193, DW_AT_decl_line(0x70)
    3594        .dwattr $C$DW$193, DW_AT_decl_column(0x0d)
    3595
    3596$C$DW$194       .dwtag  DW_TAG_member
    3597        .dwattr $C$DW$194, DW_AT_type(*$C$DW$T$11)
    3598        .dwattr $C$DW$194, DW_AT_name("INTC_CLK_STOP_REQ")
    3599        .dwattr $C$DW$194, DW_AT_TI_symbol_name("INTC_CLK_STOP_REQ")
    3600        .dwattr $C$DW$194, DW_AT_bit_offset(0x19)
    3601        .dwattr $C$DW$194, DW_AT_bit_size(0x01)
    3602        .dwattr $C$DW$194, DW_AT_data_member_location[DW_OP_plus_uconst 0x0]
