PRU Assembler Unix v2.3.1 Sun Mar 31 20:55:30 2019

Tools Copyright (c) 2012-2017 Texas Instruments Incorporated
pru1_buslatches.asm                                                  PAGE    1

       1;******************************************************************************
       2;* PRU C/C++ Codegen                                              Unix v2.3.1 *
       3;* Date/Time created: Sun Mar 31 20:55:30 2019                                *
       4;******************************************************************************
       5        .compiler_opts --abi=eabi --endian=little --hll_source=on --object_format=elf --silicon_versio
       6
       7$C$DW$CU        .dwtag  DW_TAG_compile_unit
       8        .dwattr $C$DW$CU, DW_AT_name("pru1_buslatches.c")
       9        .dwattr $C$DW$CU, DW_AT_producer("TI PRU C/C++ Codegen Unix v2.3.1 Copyright (c) 2012-2017 Tex
      10        .dwattr $C$DW$CU, DW_AT_TI_version(0x01)
      11        .dwattr $C$DW$CU, DW_AT_comp_dir("/home/joerg/retrocmp/dec/UniBone/10.01_base/2_src/pru1")
      12        .global __PRU_CREG_PRU_CFG
      13        .weak   ||CT_CFG||
      14 00000000                 ||CT_CFG||:     .usect  ".creg.PRU_CFG.noload.near",68,1
      15$C$DW$1 .dwtag  DW_TAG_variable
      16        .dwattr $C$DW$1, DW_AT_name("CT_CFG")
      17        .dwattr $C$DW$1, DW_AT_TI_symbol_name("CT_CFG")
      18        .dwattr $C$DW$1, DW_AT_location[DW_OP_addr ||CT_CFG||]
      19        .dwattr $C$DW$1, DW_AT_type(*$C$DW$T$70)
      20        .dwattr $C$DW$1, DW_AT_external
      21        .dwattr $C$DW$1, DW_AT_decl_file("/home/joerg/retrocmp/dec/UniBone/91_3rd_party/pru-c-compile/
      22        .dwattr $C$DW$1, DW_AT_decl_line(0xf2)
      23        .dwattr $C$DW$1, DW_AT_decl_column(0x17)
      24
      25        .global ||buslatches||
      26        .common ||buslatches||,16,1
      27$C$DW$2 .dwtag  DW_TAG_variable
      28        .dwattr $C$DW$2, DW_AT_name("buslatches")
      29        .dwattr $C$DW$2, DW_AT_TI_symbol_name("buslatches")
      30        .dwattr $C$DW$2, DW_AT_location[DW_OP_addr ||buslatches||]
      31        .dwattr $C$DW$2, DW_AT_type(*$C$DW$T$72)
      32        .dwattr $C$DW$2, DW_AT_external
      33        .dwattr $C$DW$2, DW_AT_decl_file("pru1_buslatches.c")
      34        .dwattr $C$DW$2, DW_AT_decl_line(0x29)
      35        .dwattr $C$DW$2, DW_AT_decl_column(0x0e)
      36
      37
      38$C$DW$3 .dwtag  DW_TAG_subprogram
      39        .dwattr $C$DW$3, DW_AT_name("buslatches_pru0_dataout")
      40        .dwattr $C$DW$3, DW_AT_TI_symbol_name("buslatches_pru0_dataout")
      41        .dwattr $C$DW$3, DW_AT_declaration
      42        .dwattr $C$DW$3, DW_AT_external
      43        .dwattr $C$DW$3, DW_AT_decl_file("pru1_buslatches.h")
      44        .dwattr $C$DW$3, DW_AT_decl_line(0xba)
      45        .dwattr $C$DW$3, DW_AT_decl_column(0x06)
      46$C$DW$4 .dwtag  DW_TAG_formal_parameter
      47        .dwattr $C$DW$4, DW_AT_type(*$C$DW$T$32)
      48
      49        .dwendtag $C$DW$3
      50
      51
      52$C$DW$5 .dwtag  DW_TAG_subprogram
      53        .dwattr $C$DW$5, DW_AT_name("__delay_cycles")
      54        .dwattr $C$DW$5, DW_AT_TI_symbol_name("__delay_cycles")
      55        .dwattr $C$DW$5, DW_AT_declaration
PRU Assembler Unix v2.3.1 Sun Mar 31 20:55:30 2019

Tools Copyright (c) 2012-2017 Texas Instruments Incorporated
pru1_buslatches.asm                                                  PAGE    2

      56        .dwattr $C$DW$5, DW_AT_external
      57$C$DW$6 .dwtag  DW_TAG_formal_parameter
      58        .dwattr $C$DW$6, DW_AT_type(*$C$DW$T$11)
      59
      60        .dwendtag $C$DW$5
      61
      62;       /home/joerg/retrocmp/dec/UniBone/91_3rd_party/pru-c-compile/ti-cgt-pru_2.3.1//bin/optpru --gen
      63;       /home/joerg/retrocmp/dec/UniBone/91_3rd_party/pru-c-compile/ti-cgt-pru_2.3.1//bin/acpiapru -@/
      64 00000000                         .sect   ".text:buslatches_test"
      65        .clink
      66        .global ||buslatches_test||
      67
      68$C$DW$7 .dwtag  DW_TAG_subprogram
      69        .dwattr $C$DW$7, DW_AT_name("buslatches_test")
      70        .dwattr $C$DW$7, DW_AT_low_pc(||buslatches_test||)
      71        .dwattr $C$DW$7, DW_AT_high_pc(0x00)
      72        .dwattr $C$DW$7, DW_AT_TI_symbol_name("buslatches_test")
      73        .dwattr $C$DW$7, DW_AT_external
      74        .dwattr $C$DW$7, DW_AT_TI_begin_file("pru1_buslatches.c")
      75        .dwattr $C$DW$7, DW_AT_TI_begin_line(0xbb)
      76        .dwattr $C$DW$7, DW_AT_TI_begin_column(0x06)
      77        .dwattr $C$DW$7, DW_AT_decl_file("pru1_buslatches.c")
      78        .dwattr $C$DW$7, DW_AT_decl_line(0xbb)
      79        .dwattr $C$DW$7, DW_AT_decl_column(0x06)
      80        .dwattr $C$DW$7, DW_AT_TI_max_frame_size(0x00)
      81        .dwpsn  file "pru1_buslatches.c",line 187,column 66,is_stmt,address ||buslatches_test||,isa 0
      82
      83        .dwfde $C$DW$CIE, ||buslatches_test||
      84$C$DW$8 .dwtag  DW_TAG_formal_parameter
      85        .dwattr $C$DW$8, DW_AT_name("a")
      86        .dwattr $C$DW$8, DW_AT_TI_symbol_name("a")
      87        .dwattr $C$DW$8, DW_AT_type(*$C$DW$T$36)
      88        .dwattr $C$DW$8, DW_AT_location[DW_OP_regx 0x38]
      89
      90$C$DW$9 .dwtag  DW_TAG_formal_parameter
      91        .dwattr $C$DW$9, DW_AT_name("b")
      92        .dwattr $C$DW$9, DW_AT_TI_symbol_name("b")
      93        .dwattr $C$DW$9, DW_AT_type(*$C$DW$T$36)
      94        .dwattr $C$DW$9, DW_AT_location[DW_OP_regx 0x39]
      95
      96$C$DW$10        .dwtag  DW_TAG_formal_parameter
      97        .dwattr $C$DW$10, DW_AT_name("c")
      98        .dwattr $C$DW$10, DW_AT_TI_symbol_name("c")
      99        .dwattr $C$DW$10, DW_AT_type(*$C$DW$T$36)
     100        .dwattr $C$DW$10, DW_AT_location[DW_OP_regx 0x3a]
     101
     102$C$DW$11        .dwtag  DW_TAG_formal_parameter
     103        .dwattr $C$DW$11, DW_AT_name("d")
     104        .dwattr $C$DW$11, DW_AT_TI_symbol_name("d")
     105        .dwattr $C$DW$11, DW_AT_type(*$C$DW$T$36)
     106        .dwattr $C$DW$11, DW_AT_location[DW_OP_regx 0x3b]
     107
     108;----------------------------------------------------------------------
     109; 187 | void buslatches_test(uint8_t a, uint8_t b, uint8_t c, uint8_t d) {     
     110; 189 | // be sure the PRU1 GPI are in "Direct Input Mode"                     
PRU Assembler Unix v2.3.1 Sun Mar 31 20:55:30 2019

Tools Copyright (c) 2012-2017 Texas Instruments Incorporated
pru1_buslatches.asm                                                  PAGE    3

     111; 190 | // spruh73n, chapter 4.4.1.2.3.2,                                      
     112;----------------------------------------------------------------------
     113
     114;***************************************************************
     115;* FNAME: buslatches_test               FR SIZE:   0           *
     116;*                                                             *
     117;* FUNCTION ENVIRONMENT                                        *
     118;*                                                             *
     119;* FUNCTION PROPERTIES                                         *
     120;*                            0 Auto,  0 SOE     *
     121;***************************************************************
     122
     123 00000000                 ||buslatches_test||:
     124;* --------------------------------------------------------------------------*
     125        .dwcfi  cfa_offset, 0
     126;*** 191        -----------------------    *(&CT_CFG+12) &= 0xfffffffcu;
     127;*** 193        -----------------------    __R30 &= 0xffffefffu;
     128        .dwpsn  file "pru1_buslatches.c",line 191,column 2,is_stmt,isa 0
     129;----------------------------------------------------------------------
     130; 191 | CT_CFG.GPCFG1_bit.PRU1_GPI_MODE = 0;                                   
     131;----------------------------------------------------------------------
     132 00000000 FFFC8024FFFFC0          LDI32     r0, 0xfffffffc        ; [ALU_PRU] |191| 
         00000007 00000000004024 
     133 00000008 000000910C2081!         LBCO      &r1, __PRU_CREG_PRU_CFG, $CSBREL(||CT_CFG||+12), 4 ; [ALU_PRU] |191| CT_CFG
     134 0000000c 00000010E0E1E0          AND       r0, r1, r0            ; [ALU_PRU] |191| 
     135 00000010 000000810C2080!         SBCO      &r0, __PRU_CREG_PRU_CFG, $CSBREL(||CT_CFG||+12), 4 ; [ALU_PRU] |191| CT_CFG
     136        .dwpsn  file "pru1_buslatches.c",line 193,column 2,is_stmt,isa 0
     137;----------------------------------------------------------------------
     138; 193 | DEBUG_PIN_SET(0); // clear, no error                                   
     139; 195 | #ifdef TEST_66MHZ                                                      
     140; 196 | while (1) {                                                            
     141; 197 |         __R30 |= (1 << 12); // set PRU1.12                             
     142; 198 |         __R30 &= ~(1 << 12); // clear PRU1.12                          
     143; 200 | #endif                                                                 
     144; 202 | #ifdef TEST_WRITE_READ_DELAY                                           
     145; 203 | // measures total time between GPI out and GPUIO in.                   
     146; 204 | // should be 10ns, is 40ns !                                           
     147; 205 | // separate DATIN7 from 74LVTH, connect to PRU1.12                     
     148; 206 | while (1) {                                                            
     149;----------------------------------------------------------------------
     150 00000014 0000001D0CFEFE          CLR       r30, r30, 0x0000000c  ; [ALU_PRU] |193| 
     151;* --------------------------------------------------------------------------*
     152;*   BEGIN LOOP ||$C$L1||
     153;*
     154;*   Loop source line                : 206
     155;*   Loop closing brace source line  : 214
     156;*   Known Minimum Trip Count        : 1
     157;*   Known Maximum Trip Count        : 4294967295
     158;*   Known Max Trip Count Factor     : 1
     159;* --------------------------------------------------------------------------*
     160 00000018                 ||$C$L1||:    
     161;***    -----------------------g2:
     162;*** 207        -----------------------    __R30 |= 0x1000u;
     163        .dwpsn  file "pru1_buslatches.c",line 207,column 3,is_stmt,isa 0
     164;----------------------------------------------------------------------
PRU Assembler Unix v2.3.1 Sun Mar 31 20:55:30 2019

Tools Copyright (c) 2012-2017 Texas Instruments Incorporated
pru1_buslatches.asm                                                  PAGE    4

     165; 207 | __R30 |= (1 << 12); // set PRU1.12                                     
     166;----------------------------------------------------------------------
     167 00000018 0000001F0CFEFE          SET       r30, r30, 0x0000000c  ; [ALU_PRU] |207| 
     168;* --------------------------------------------------------------------------*
     169;*   BEGIN LOOP ||$C$L2||
     170;*
     171;*   Loop source line                : 208
     172;*   Loop closing brace source line  : 209
     173;*   Known Minimum Trip Count        : 1
     174;*   Known Maximum Trip Count        : 4294967295
     175;*   Known Max Trip Count Factor     : 1
     176;* --------------------------------------------------------------------------*
     177 0000001c                 ||$C$L2||:    
     178;***    -----------------------g3:
     179;*** 208        -----------------------    if ( !(__R31&0x80u) ) goto g3;
     180        .dwpsn  file "pru1_buslatches.c",line 208,column 10,is_stmt,isa 0
     181;----------------------------------------------------------------------
     182; 208 | while (!(__R31 & 0x80))                                                
     183; 209 | ;// wait until readback on DATAIN7                                     
     184;----------------------------------------------------------------------
     185 0000001c 000000C907FF00          QBBC      ||$C$L2||, r31, 0x07  ; [ALU_PRU] |208| 
     186;* --------------------------------------------------------------------------*
     187;*** 211        -----------------------    __R30 &= 0xffffefffu;
     188        .dwpsn  file "pru1_buslatches.c",line 211,column 3,is_stmt,isa 0
     189;----------------------------------------------------------------------
     190; 211 | __R30 &= ~(1 << 12);// clear PRU1.12                                   
     191;----------------------------------------------------------------------
     192 00000020 0000001D0CFEFE          CLR       r30, r30, 0x0000000c  ; [ALU_PRU] |211| 
     193;* --------------------------------------------------------------------------*
     194;*   BEGIN LOOP ||$C$L3||
     195;*
     196;*   Loop source line                : 212
     197;*   Loop closing brace source line  : 213
     198;*   Known Minimum Trip Count        : 1
     199;*   Known Maximum Trip Count        : 4294967295
     200;*   Known Max Trip Count Factor     : 1
     201;* --------------------------------------------------------------------------*
     202 00000024                 ||$C$L3||:    
     203;***    -----------------------g5:
     204;*** 212        -----------------------    if ( !(__R31&0x80u) ) goto g2;
     205        .dwpsn  file "pru1_buslatches.c",line 212,column 3,is_stmt,isa 0
     206;----------------------------------------------------------------------
     207; 212 | while (__R31 & 0x80)                                                   
     208; 213 | ;// wait until readback on DATAIN7                                     
     209; 215 | #endif                                                                 
     210; 217 | #ifdef TEST_CROSSTALK                                                  
     211; 218 | // const pattern of 00 ff 00 ff on latch inputs.                       
     212; 219 | // register selct causes fast switch of all 8 DATAIN.                  
     213; 220 | // Crosstalk on logic analyzers?                                       
     214; 221 | a = c = 0x00;                                                          
     215; 222 | b = d = 0xff;                                                          
     216; 223 | // read/write sequence: mix of read-read and read-write                
     217; 224 | buslatches_setbyte(2, a)                                               
     218; 225 | ;                                                                      
     219; 226 | buslatches_setbyte(3, b)                                               
PRU Assembler Unix v2.3.1 Sun Mar 31 20:55:30 2019

Tools Copyright (c) 2012-2017 Texas Instruments Incorporated
pru1_buslatches.asm                                                  PAGE    5

     220; 227 | ;                                                                      
     221; 228 | buslatches_setbyte(5, c)                                               
     222; 229 | ;                                                                      
     223; 230 | buslatches_setbyte(6, d)                                               
     224; 231 | ;                                                                      
     225; 233 | while (mailbox.arm2pru_req == ARM2PRU_BUSLATCH_TEST) {                 
     226; 234 | uint8_t resvar;                                                        
     227; 235 | // echo DATA0 read only                                                
     228; 236 | buslatches_get2(2,resvar);                                             
     229; 237 | DEBUG_PIN_SET(buslatches_get(2) != a);                                 
     230; 238 | // buslatches_debug_set(resvar & 1);                                   
     231; 239 | buslatches_get2(3,resvar);                                             
     232; 240 | DEBUG_PIN_SET(buslatches_get(3) != b);                                 
     233; 241 | //buslatches_debug_set(resvar & 1);                                    
     234; 242 | buslatches_get2(5,resvar);                                             
     235; 243 | DEBUG_PIN_SET(buslatches_get(5) != c);                                 
     236; 244 | //buslatches_debug_set(resvar & 1);                                    
     237; 245 | buslatches_get2(6,resvar);                                             
     238; 246 | DEBUG_PIN_SET(buslatches_get(6) != d);                                 
     239; 247 | //buslatches_debug_set(resvar & 1);                                    
     240; 249 | #endif                                                                 
     241; 251 | #ifdef TEST_WRITE_READ_VERIFY                                          
     242; 252 | // write moving patterns into latches, read back and verify.           
     243; 253 | // PRU1.12 is set on mismatch                                          
     244; 254 | while (mailbox.arm2pru_req == ARM2PRU_BUSLATCH_TEST) {                 
     245; 256 | // read/write sequence: mix of read-read and read-write                
     246; 257 | buslatches_setbyte(2, a)                                               
     247; 258 | ;                                                                      
     248; 259 | buslatches_setbyte(3, b)                                               
     249; 260 | ;                                                                      
     250; 261 | buslatches_setbyte(5, c)                                               
     251; 262 | ;                                                                      
     252; 263 | if (buslatches_get(2) != a)                                            
     253; 264 | DEBUG_PIN_PULSE_100NS                                                  
     254; 265 | ;// show error flag. cleared by next reg_sel                           
     255; 266 | buslatches_setbyte(6, d)                                               
     256; 267 | ;                                                                      
     257; 268 | if (buslatches_get(3) != b)                                            
     258; 269 | DEBUG_PIN_PULSE_100NS;                                                 
     259; 270 | if (buslatches_get(5) != c)                                            
     260; 271 | DEBUG_PIN_PULSE_100NS;                                                 
     261; 272 | if (buslatches_get(6) != d)                                            
     262; 273 | DEBUG_PIN_PULSE_100NS;                                                 
     263; 274 | a++;                                                                   
     264; 275 | b++;                                                                   
     265; 276 | c++;                                                                   
     266; 277 | d++;                                                                   
     267; 279 | #endif                                                                 
     268;----------------------------------------------------------------------
     269 00000024 000000CF07FFFD          QBBC      ||$C$L1||, r31, 0x07  ; [ALU_PRU] |212| 
     270;* --------------------------------------------------------------------------*
     271;*** 212        -----------------------    goto g5;
     272 00000028 00000021000000!         JMP       ||$C$L3||             ; [ALU_PRU] |212| 
     273;* --------------------------------------------------------------------------*
     274        .dwattr $C$DW$7, DW_AT_TI_end_file("pru1_buslatches.c")
PRU Assembler Unix v2.3.1 Sun Mar 31 20:55:30 2019

Tools Copyright (c) 2012-2017 Texas Instruments Incorporated
pru1_buslatches.asm                                                  PAGE    6

     275        .dwattr $C$DW$7, DW_AT_TI_end_line(0x118)
     276        .dwattr $C$DW$7, DW_AT_TI_end_column(0x01)
     277        .dwendentry
     278        .dwendtag $C$DW$7
     279
     280 00000000                         .sect   ".text:buslatches_reset"
     281        .clink
     282        .global ||buslatches_reset||
     283
     284$C$DW$12        .dwtag  DW_TAG_subprogram
     285        .dwattr $C$DW$12, DW_AT_name("buslatches_reset")
     286        .dwattr $C$DW$12, DW_AT_low_pc(||buslatches_reset||)
     287        .dwattr $C$DW$12, DW_AT_high_pc(0x00)
     288        .dwattr $C$DW$12, DW_AT_TI_symbol_name("buslatches_reset")
     289        .dwattr $C$DW$12, DW_AT_external
     290        .dwattr $C$DW$12, DW_AT_TI_begin_file("pru1_buslatches.c")
     291        .dwattr $C$DW$12, DW_AT_TI_begin_line(0x2f)
     292        .dwattr $C$DW$12, DW_AT_TI_begin_column(0x06)
     293        .dwattr $C$DW$12, DW_AT_decl_file("pru1_buslatches.c")
     294        .dwattr $C$DW$12, DW_AT_decl_line(0x2f)
     295        .dwattr $C$DW$12, DW_AT_decl_column(0x06)
     296        .dwattr $C$DW$12, DW_AT_TI_max_frame_size(0x26)
     297        .dwpsn  file "pru1_buslatches.c",line 47,column 25,is_stmt,address ||buslatches_reset||,isa 0
     298
     299        .dwfde $C$DW$CIE, ||buslatches_reset||
     300;----------------------------------------------------------------------
     301;  47 | void buslatches_reset() {                                              
     302;  48 | //      unsigned i;                                                    
     303;  49 | // chips are all 8bit width, but not all input/outputs are             
     304;  50 | // connected to bidirektional terminated UNIBUS lines.                 
     305;  51 | // see PCB schematic!                                                  
     306;  53 | // invalidate cached register_state                                    
     307;  54 | //      buslatches.cur_reg_sel = 0xff; // invalid                      
     308;  55 | //      buslatches.cur_reg_write = 1 ; // idle level is H              
     309;  57 | // init all outputs: UNIBUS lines now all H = inactive                 
     310;----------------------------------------------------------------------
     311
     312;***************************************************************
     313;* FNAME: buslatches_reset              FR SIZE:  38           *
     314;*                                                             *
     315;* FUNCTION ENVIRONMENT                                        *
     316;*                                                             *
     317;* FUNCTION PROPERTIES                                         *
     318;*                            0 Auto, 38 SOE     *
     319;***************************************************************
     320
     321||buslatches_reset||:
     322;* --------------------------------------------------------------------------*
     323;* r4_0  assigned to $O$C1
     324$C$DW$13        .dwtag  DW_TAG_variable
     325        .dwattr $C$DW$13, DW_AT_name("$O$C1")
     326        .dwattr $C$DW$13, DW_AT_TI_symbol_name("$O$C1")
     327        .dwattr $C$DW$13, DW_AT_type(*$C$DW$T$78)
     328        .dwattr $C$DW$13, DW_AT_location[DW_OP_reg16]
     329
PRU Assembler Unix v2.3.1 Sun Mar 31 20:55:30 2019

Tools Copyright (c) 2012-2017 Texas Instruments Incorporated
pru1_buslatches.asm                                                  PAGE    7

     330;* r12_0 assigned to $O$C2
     331$C$DW$14        .dwtag  DW_TAG_variable
     332        .dwattr $C$DW$14, DW_AT_name("$O$C2")
     333        .dwattr $C$DW$14, DW_AT_TI_symbol_name("$O$C2")
     334        .dwattr $C$DW$14, DW_AT_type(*$C$DW$T$6)
     335        .dwattr $C$DW$14, DW_AT_location[DW_OP_regx 0x30]
     336
     337        .dwcfi  cfa_offset, 0
     338;*** 59 -----------------------    buslatches_pru0_dataout(31u);
     339;*** 59 -----------------------    __R30 = 0u;
     340;*** 59 -----------------------    *(C$1 = &buslatches) = 31u;
     341;*** 59 -----------------------    __delay_cycles(4u);
     342;*** 59 -----------------------    __R30 = 2048u;
     343;*** 60 -----------------------    buslatches_pru0_dataout(0u);
     344;*** 60 -----------------------    __R30 = 256u;
     345;*** 60 -----------------------    C$1[1] = C$2 = 0u;
     346;*** 60 -----------------------    __delay_cycles(4u);
     347;*** 60 -----------------------    __R30 = 2304u;
     348;*** 61 -----------------------    buslatches_pru0_dataout(0u);
     349;*** 61 -----------------------    __R30 = 512u;
     350;*** 61 -----------------------    __delay_cycles(6u);
     351;*** 61 -----------------------    __R30 = 2560u;
     352;*** 62 -----------------------    buslatches_pru0_dataout(0u);
     353;*** 62 -----------------------    __R30 = 768u;
     354;*** 62 -----------------------    __delay_cycles(6u);
     355;*** 62 -----------------------    __R30 = 2816u;
     356;*** 63 -----------------------    buslatches_pru0_dataout(0u);
     357;*** 63 -----------------------    __R30 = 1024u;
     358;*** 63 -----------------------    C$1[4] = C$2;
     359;*** 63 -----------------------    __delay_cycles(4u);
     360;*** 63 -----------------------    __R30 = 3072u;
     361;*** 64 -----------------------    buslatches_pru0_dataout(0u);
     362;*** 64 -----------------------    __R30 = 1280u;
     363;*** 64 -----------------------    __delay_cycles(6u);
     364;*** 64 -----------------------    __R30 = 3328u;
     365;*** 65 -----------------------    buslatches_pru0_dataout(0u);
     366;*** 65 -----------------------    __R30 = 1536u;
     367;*** 65 -----------------------    __delay_cycles(6u);
     368;*** 65 -----------------------    __R30 = 3584u;
     369;*** 66 -----------------------    buslatches_pru0_dataout(0u);
     370;*** 66 -----------------------    __R30 = 1792u;
     371;*** 66 -----------------------    C$1[7] = C$2;
     372;*** 66 -----------------------    __delay_cycles(4u);
     373;*** 66 -----------------------    __R30 = 3840u;
     374;***    -----------------------    return;
     375 00000000 0000000526E2E2          SUB       r2, r2, 0x26          ; [ALU_PRU] 
     376        .dwcfi  cfa_offset, 38
     377        .dwpsn  file "pru1_buslatches.c",line 59,column 2,is_stmt,isa 0
     378;----------------------------------------------------------------------
     379;  59 | buslatches_setbits(0, 0xff, 0x1f); // BG,NPG OUT: inactive = driver H =
     380;     |  UNIBUS L                                                              
     381;----------------------------------------------------------------------
     382 00000004 00000024001FEE          LDI       r14, 0x001f           ; [ALU_PRU] |59| 
     383 00000008 000000E50042C3          SBBO      &r3.b2, r2, 0, 38     ; [ALU_PRU] 
     384        .dwcfi  save_reg_to_mem, 14, -38
PRU Assembler Unix v2.3.1 Sun Mar 31 20:55:30 2019

Tools Copyright (c) 2012-2017 Texas Instruments Incorporated
pru1_buslatches.asm                                                  PAGE    8

     385        .dwcfi  save_reg_to_mem, 15, -37
     386        .dwcfi  save_reg_to_mem, 16, -36
     387        .dwcfi  save_reg_to_mem, 17, -35
     388        .dwcfi  save_reg_to_mem, 18, -34
     389        .dwcfi  save_reg_to_mem, 19, -33
     390        .dwcfi  save_reg_to_mem, 20, -32
     391        .dwcfi  save_reg_to_mem, 21, -31
     392        .dwcfi  save_reg_to_mem, 22, -30
     393        .dwcfi  save_reg_to_mem, 23, -29
     394        .dwcfi  save_reg_to_mem, 24, -28
     395        .dwcfi  save_reg_to_mem, 25, -27
     396        .dwcfi  save_reg_to_mem, 26, -26
     397        .dwcfi  save_reg_to_mem, 27, -25
     398        .dwcfi  save_reg_to_mem, 28, -24
     399        .dwcfi  save_reg_to_mem, 29, -23
     400        .dwcfi  save_reg_to_mem, 30, -22
     401        .dwcfi  save_reg_to_mem, 31, -21
     402        .dwcfi  save_reg_to_mem, 32, -20
     403        .dwcfi  save_reg_to_mem, 33, -19
     404        .dwcfi  save_reg_to_mem, 34, -18
     405        .dwcfi  save_reg_to_mem, 35, -17
     406        .dwcfi  save_reg_to_mem, 36, -16
     407        .dwcfi  save_reg_to_mem, 37, -15
     408        .dwcfi  save_reg_to_mem, 38, -14
     409        .dwcfi  save_reg_to_mem, 39, -13
     410        .dwcfi  save_reg_to_mem, 40, -12
     411        .dwcfi  save_reg_to_mem, 41, -11
     412        .dwcfi  save_reg_to_mem, 42, -10
     413        .dwcfi  save_reg_to_mem, 43, -9
     414        .dwcfi  save_reg_to_mem, 44, -8
     415        .dwcfi  save_reg_to_mem, 45, -7
     416        .dwcfi  save_reg_to_mem, 46, -6
     417        .dwcfi  save_reg_to_mem, 47, -5
     418        .dwcfi  save_reg_to_mem, 48, -4
     419        .dwcfi  save_reg_to_mem, 49, -3
     420        .dwcfi  save_reg_to_mem, 50, -2
     421        .dwcfi  save_reg_to_mem, 51, -1
     422$C$DW$15        .dwtag  DW_TAG_TI_branch
     423        .dwattr $C$DW$15, DW_AT_low_pc(0x00)
     424        .dwattr $C$DW$15, DW_AT_name("buslatches_pru0_dataout")
     425        .dwattr $C$DW$15, DW_AT_TI_call
     426
     427 0000000c 000000230000C3!         JAL       r3.w2, ||buslatches_pru0_dataout|| ; [ALU_PRU] |59| buslatches_pru0_dataout
     428 00000010 000000240000E4!         LDI       r4, ||buslatches||    ; [ALU_PRU] |59| $O$C1,buslatches
     429 00000014 00000024001F00          LDI       r0.b0, 0x1f           ; [ALU_PRU] |59| 
     430 00000018 0000002EFF819E          ZERO      &r30, 4               ; [ALU_PRU] |59| 
     431 0000001c 000000E1000400          SBBO      &r0.b0, r4, 0, 1      ; [ALU_PRU] |59| $O$C1
     432        .newblock
     433 00000020 00018C240000CC          LDI32    r12, 1
         00000027 00000000004024 
     434 00000028 0000000501ECEC  $1:     SUB      r12, r12, 1
     435 0000002c 0000006F00ECFF          QBNE     $1, r12, 0            ; [ALU_PRU] |59| 
     436        .dwpsn  file "pru1_buslatches.c",line 60,column 2,is_stmt,isa 0
     437;----------------------------------------------------------------------
     438;  60 | buslatches_setbits(1, 0xff, 0x00); // all other: inactive = driver L =
PRU Assembler Unix v2.3.1 Sun Mar 31 20:55:30 2019

Tools Copyright (c) 2012-2017 Texas Instruments Incorporated
pru1_buslatches.asm                                                  PAGE    9

     439;     | UNIBUS H                                                               
     440;----------------------------------------------------------------------
     441 00000030 0000002EFF818E          ZERO      &r14, 4               ; [ALU_PRU] |60| 
     442        .dwpsn  file "pru1_buslatches.c",line 59,column 2,is_stmt,isa 0
     443 00000034 000000240800FE          LDI       r30, 0x0800           ; [ALU_PRU] |59| 
     444        .dwpsn  file "pru1_buslatches.c",line 60,column 2,is_stmt,isa 0
     445$C$DW$16        .dwtag  DW_TAG_TI_branch
     446        .dwattr $C$DW$16, DW_AT_low_pc(0x00)
     447        .dwattr $C$DW$16, DW_AT_name("buslatches_pru0_dataout")
     448        .dwattr $C$DW$16, DW_AT_TI_call
     449
     450 00000038 000000230000C3!         JAL       r3.w2, ||buslatches_pru0_dataout|| ; [ALU_PRU] |60| buslatches_pru0_dataout
     451 0000003c 0000002400000C          LDI       r12.b0, 0x00          ; [ALU_PRU] |60| $O$C2
     452 00000040 000000240100FE          LDI       r30, 0x0100           ; [ALU_PRU] |60| 
     453 00000044 000000E101040C          SBBO      &r12.b0, r4, 1, 1     ; [ALU_PRU] |60| $O$C1,$O$C2
     454        .newblock
     455 00000048 00018B240000CB          LDI32    r11, 1
         0000004f 00000000004024 
     456 00000050 0000000501EBEB  $1:     SUB      r11, r11, 1
     457 00000054 0000006F00EBFF          QBNE     $1, r11, 0            ; [ALU_PRU] |60| 
     458        .dwpsn  file "pru1_buslatches.c",line 61,column 2,is_stmt,isa 0
     459;----------------------------------------------------------------------
     460;  61 | buslatches_setbyte(2, 0x00);                                           
     461;----------------------------------------------------------------------
     462 00000058 0000002EFF818E          ZERO      &r14, 4               ; [ALU_PRU] |61| 
     463        .dwpsn  file "pru1_buslatches.c",line 60,column 2,is_stmt,isa 0
     464 0000005c 000000240900FE          LDI       r30, 0x0900           ; [ALU_PRU] |60| 
     465        .dwpsn  file "pru1_buslatches.c",line 61,column 2,is_stmt,isa 0
     466$C$DW$17        .dwtag  DW_TAG_TI_branch
     467        .dwattr $C$DW$17, DW_AT_low_pc(0x00)
     468        .dwattr $C$DW$17, DW_AT_name("buslatches_pru0_dataout")
     469        .dwattr $C$DW$17, DW_AT_TI_call
     470
     471 00000060 000000230000C3!         JAL       r3.w2, ||buslatches_pru0_dataout|| ; [ALU_PRU] |61| buslatches_pru0_dataout
     472 00000064 000000240200FE          LDI       r30, 0x0200           ; [ALU_PRU] |61| 
     473        .newblock
     474 00000068 00028A240000CA          LDI32    r10, 2
         0000006f 00000000004024 
     475 00000070 0000000501EAEA  $1:     SUB      r10, r10, 1
     476 00000074 0000006F00EAFF          QBNE     $1, r10, 0            ; [ALU_PRU] |61| 
     477        .dwpsn  file "pru1_buslatches.c",line 62,column 2,is_stmt,isa 0
     478;----------------------------------------------------------------------
     479;  62 | buslatches_setbyte(3, 0x00);                                           
     480;----------------------------------------------------------------------
     481 00000078 0000002EFF818E          ZERO      &r14, 4               ; [ALU_PRU] |62| 
     482        .dwpsn  file "pru1_buslatches.c",line 61,column 2,is_stmt,isa 0
     483 0000007c 000000240A00FE          LDI       r30, 0x0a00           ; [ALU_PRU] |61| 
     484        .dwpsn  file "pru1_buslatches.c",line 62,column 2,is_stmt,isa 0
     485$C$DW$18        .dwtag  DW_TAG_TI_branch
     486        .dwattr $C$DW$18, DW_AT_low_pc(0x00)
     487        .dwattr $C$DW$18, DW_AT_name("buslatches_pru0_dataout")
     488        .dwattr $C$DW$18, DW_AT_TI_call
     489
     490 00000080 000000230000C3!         JAL       r3.w2, ||buslatches_pru0_dataout|| ; [ALU_PRU] |62| buslatches_pru0_dataout
     491 00000084 000000240300FE          LDI       r30, 0x0300           ; [ALU_PRU] |62| 
PRU Assembler Unix v2.3.1 Sun Mar 31 20:55:30 2019

Tools Copyright (c) 2012-2017 Texas Instruments Incorporated
pru1_buslatches.asm                                                  PAGE   10

     492        .newblock
     493 00000088 000289240000C9          LDI32    r9, 2
         0000008f 00000000004024 
     494 00000090 0000000501E9E9  $1:     SUB      r9, r9, 1
     495 00000094 0000006F00E9FF          QBNE     $1, r9, 0             ; [ALU_PRU] |62| 
     496        .dwpsn  file "pru1_buslatches.c",line 63,column 2,is_stmt,isa 0
     497;----------------------------------------------------------------------
     498;  63 | buslatches_setbits(4, 0xff, 0x00);                                     
     499;----------------------------------------------------------------------
     500 00000098 0000002EFF818E          ZERO      &r14, 4               ; [ALU_PRU] |63| 
     501        .dwpsn  file "pru1_buslatches.c",line 62,column 2,is_stmt,isa 0
     502 0000009c 000000240B00FE          LDI       r30, 0x0b00           ; [ALU_PRU] |62| 
     503        .dwpsn  file "pru1_buslatches.c",line 63,column 2,is_stmt,isa 0
     504$C$DW$19        .dwtag  DW_TAG_TI_branch
     505        .dwattr $C$DW$19, DW_AT_low_pc(0x00)
     506        .dwattr $C$DW$19, DW_AT_name("buslatches_pru0_dataout")
     507        .dwattr $C$DW$19, DW_AT_TI_call
     508
     509 000000a0 000000230000C3!         JAL       r3.w2, ||buslatches_pru0_dataout|| ; [ALU_PRU] |63| buslatches_pru0_dataout
     510 000000a4 000000240400FE          LDI       r30, 0x0400           ; [ALU_PRU] |63| 
     511 000000a8 000000E104040C          SBBO      &r12.b0, r4, 4, 1     ; [ALU_PRU] |63| $O$C1,$O$C2
     512        .newblock
     513 000000ac 000188240000C8          LDI32    r8, 1
         000000b3 00000000004024 
     514 000000b4 0000000501E8E8  $1:     SUB      r8, r8, 1
     515 000000b8 0000006F00E8FF          QBNE     $1, r8, 0             ; [ALU_PRU] |63| 
     516        .dwpsn  file "pru1_buslatches.c",line 64,column 2,is_stmt,isa 0
     517;----------------------------------------------------------------------
     518;  64 | buslatches_setbyte(5, 0x00);                                           
     519;----------------------------------------------------------------------
     520 000000bc 0000002EFF818E          ZERO      &r14, 4               ; [ALU_PRU] |64| 
     521        .dwpsn  file "pru1_buslatches.c",line 63,column 2,is_stmt,isa 0
     522 000000c0 000000240C00FE          LDI       r30, 0x0c00           ; [ALU_PRU] |63| 
     523        .dwpsn  file "pru1_buslatches.c",line 64,column 2,is_stmt,isa 0
     524$C$DW$20        .dwtag  DW_TAG_TI_branch
     525        .dwattr $C$DW$20, DW_AT_low_pc(0x00)
     526        .dwattr $C$DW$20, DW_AT_name("buslatches_pru0_dataout")
     527        .dwattr $C$DW$20, DW_AT_TI_call
     528
     529 000000c4 000000230000C3!         JAL       r3.w2, ||buslatches_pru0_dataout|| ; [ALU_PRU] |64| buslatches_pru0_dataout
     530 000000c8 000000240500FE          LDI       r30, 0x0500           ; [ALU_PRU] |64| 
     531        .newblock
     532 000000cc 000287240000C7          LDI32    r7, 2
         000000d3 00000000004024 
     533 000000d4 0000000501E7E7  $1:     SUB      r7, r7, 1
     534 000000d8 0000006F00E7FF          QBNE     $1, r7, 0             ; [ALU_PRU] |64| 
     535        .dwpsn  file "pru1_buslatches.c",line 65,column 2,is_stmt,isa 0
     536;----------------------------------------------------------------------
     537;  65 | buslatches_setbyte(6, 0x00);                                           
     538;----------------------------------------------------------------------
     539 000000dc 0000002EFF818E          ZERO      &r14, 4               ; [ALU_PRU] |65| 
     540        .dwpsn  file "pru1_buslatches.c",line 64,column 2,is_stmt,isa 0
     541 000000e0 000000240D00FE          LDI       r30, 0x0d00           ; [ALU_PRU] |64| 
     542        .dwpsn  file "pru1_buslatches.c",line 65,column 2,is_stmt,isa 0
     543$C$DW$21        .dwtag  DW_TAG_TI_branch
PRU Assembler Unix v2.3.1 Sun Mar 31 20:55:30 2019

Tools Copyright (c) 2012-2017 Texas Instruments Incorporated
pru1_buslatches.asm                                                  PAGE   11

     544        .dwattr $C$DW$21, DW_AT_low_pc(0x00)
     545        .dwattr $C$DW$21, DW_AT_name("buslatches_pru0_dataout")
     546        .dwattr $C$DW$21, DW_AT_TI_call
     547
     548 000000e4 000000230000C3!         JAL       r3.w2, ||buslatches_pru0_dataout|| ; [ALU_PRU] |65| buslatches_pru0_dataout
     549 000000e8 000000240600FE          LDI       r30, 0x0600           ; [ALU_PRU] |65| 
     550        .newblock
     551 000000ec 000286240000C6          LDI32    r6, 2
         000000f3 00000000004024 
     552 000000f4 0000000501E6E6  $1:     SUB      r6, r6, 1
     553 000000f8 0000006F00E6FF          QBNE     $1, r6, 0             ; [ALU_PRU] |65| 
     554        .dwpsn  file "pru1_buslatches.c",line 66,column 2,is_stmt,isa 0
     555;----------------------------------------------------------------------
     556;  66 | buslatches_setbits(7, 0xff, 0x00);                                     
     557;----------------------------------------------------------------------
     558 000000fc 0000002EFF818E          ZERO      &r14, 4               ; [ALU_PRU] |66| 
     559        .dwpsn  file "pru1_buslatches.c",line 65,column 2,is_stmt,isa 0
     560 00000100 000000240E00FE          LDI       r30, 0x0e00           ; [ALU_PRU] |65| 
     561        .dwpsn  file "pru1_buslatches.c",line 66,column 2,is_stmt,isa 0
     562;----------------------------------------------------------------------
     563;  68 | // standard position: select register 4 with MSYN/SSYM                 
     564;  69 | // buslatches_setval(4, 0xff, 0x00);                                   
     565;----------------------------------------------------------------------
     566$C$DW$22        .dwtag  DW_TAG_TI_branch
     567        .dwattr $C$DW$22, DW_AT_low_pc(0x00)
     568        .dwattr $C$DW$22, DW_AT_name("buslatches_pru0_dataout")
     569        .dwattr $C$DW$22, DW_AT_TI_call
     570
     571 00000104 000000230000C3!         JAL       r3.w2, ||buslatches_pru0_dataout|| ; [ALU_PRU] |66| buslatches_pru0_dataout
     572 00000108 000000240700FE          LDI       r30, 0x0700           ; [ALU_PRU] |66| 
     573 0000010c 000000E107040C          SBBO      &r12.b0, r4, 7, 1     ; [ALU_PRU] |66| $O$C1,$O$C2
     574        .newblock
     575 00000110 000185240000C5          LDI32    r5, 1
         00000117 00000000004024 
     576 00000118 0000000501E5E5  $1:     SUB      r5, r5, 1
     577 0000011c 0000006F00E5FF          QBNE     $1, r5, 0             ; [ALU_PRU] |66| 
     578 00000120 000000240F00FE          LDI       r30, 0x0f00           ; [ALU_PRU] |66| 
     579 00000124 000000F50042C3          LBBO      &r3.b2, r2, 0, 38     ; [ALU_PRU] 
     580        .dwcfi  restore_reg, 14
     581        .dwcfi  restore_reg, 15
     582        .dwcfi  restore_reg, 16
     583        .dwcfi  restore_reg, 17
     584        .dwcfi  restore_reg, 18
     585        .dwcfi  restore_reg, 19
     586        .dwcfi  restore_reg, 20
     587        .dwcfi  restore_reg, 21
     588        .dwcfi  restore_reg, 22
     589        .dwcfi  restore_reg, 23
     590        .dwcfi  restore_reg, 24
     591        .dwcfi  restore_reg, 25
     592        .dwcfi  restore_reg, 26
     593        .dwcfi  restore_reg, 27
     594        .dwcfi  restore_reg, 28
     595        .dwcfi  restore_reg, 29
     596        .dwcfi  restore_reg, 30
PRU Assembler Unix v2.3.1 Sun Mar 31 20:55:30 2019

Tools Copyright (c) 2012-2017 Texas Instruments Incorporated
pru1_buslatches.asm                                                  PAGE   12

     597        .dwcfi  restore_reg, 31
     598        .dwcfi  restore_reg, 32
     599        .dwcfi  restore_reg, 33
     600        .dwcfi  restore_reg, 34
     601        .dwcfi  restore_reg, 35
     602        .dwcfi  restore_reg, 36
     603        .dwcfi  restore_reg, 37
     604        .dwcfi  restore_reg, 38
     605        .dwcfi  restore_reg, 39
     606        .dwcfi  restore_reg, 40
     607        .dwcfi  restore_reg, 41
     608        .dwcfi  restore_reg, 42
     609        .dwcfi  restore_reg, 43
     610        .dwcfi  restore_reg, 44
     611        .dwcfi  restore_reg, 45
     612        .dwcfi  restore_reg, 46
     613        .dwcfi  restore_reg, 47
     614        .dwcfi  restore_reg, 48
     615        .dwcfi  restore_reg, 49
     616        .dwcfi  restore_reg, 50
     617        .dwcfi  restore_reg, 51
     618 00000128 0000000126E2E2          ADD       r2, r2, 0x26          ; [ALU_PRU] 
     619        .dwcfi  cfa_offset, 0
     620$C$DW$23        .dwtag  DW_TAG_TI_branch
     621        .dwattr $C$DW$23, DW_AT_low_pc(0x00)
     622        .dwattr $C$DW$23, DW_AT_TI_return
     623
     624 0000012c 00000020C30000          JMP       r3.w2                 ; [ALU_PRU] 
     625        .dwattr $C$DW$12, DW_AT_TI_end_file("pru1_buslatches.c")
     626        .dwattr $C$DW$12, DW_AT_TI_end_line(0x46)
     627        .dwattr $C$DW$12, DW_AT_TI_end_column(0x01)
     628        .dwendentry
     629        .dwendtag $C$DW$12
     630
     631 00000000                         .sect   ".text:buslatches_powercycle"
     632        .clink
     633        .global ||buslatches_powercycle||
     634
     635$C$DW$24        .dwtag  DW_TAG_subprogram
     636        .dwattr $C$DW$24, DW_AT_name("buslatches_powercycle")
     637        .dwattr $C$DW$24, DW_AT_low_pc(||buslatches_powercycle||)
     638        .dwattr $C$DW$24, DW_AT_high_pc(0x00)
     639        .dwattr $C$DW$24, DW_AT_TI_symbol_name("buslatches_powercycle")
     640        .dwattr $C$DW$24, DW_AT_external
     641        .dwattr $C$DW$24, DW_AT_TI_begin_file("pru1_buslatches.c")
     642        .dwattr $C$DW$24, DW_AT_TI_begin_line(0xa1)
     643        .dwattr $C$DW$24, DW_AT_TI_begin_column(0x06)
     644        .dwattr $C$DW$24, DW_AT_decl_file("pru1_buslatches.c")
     645        .dwattr $C$DW$24, DW_AT_decl_line(0xa1)
     646        .dwattr $C$DW$24, DW_AT_decl_column(0x06)
     647        .dwattr $C$DW$24, DW_AT_TI_max_frame_size(0x23)
     648        .dwpsn  file "pru1_buslatches.c",line 161,column 30,is_stmt,address ||buslatches_powercycle||,
     649
     650        .dwfde $C$DW$CIE, ||buslatches_powercycle||
     651;----------------------------------------------------------------------
PRU Assembler Unix v2.3.1 Sun Mar 31 20:55:30 2019

Tools Copyright (c) 2012-2017 Texas Instruments Incorporated
pru1_buslatches.asm                                                  PAGE   13

     652; 161 | void buslatches_powercycle() {                                         
     653; 162 | // INIT: latch[7], bit 3                                               
     654; 163 | // ACLO: latch[7], bit 4                                               
     655; 164 | // DCLO: latch[7], bit 5                                               
     656;----------------------------------------------------------------------
     657
     658;***************************************************************
     659;* FNAME: buslatches_powercycle         FR SIZE:  35           *
     660;*                                                             *
     661;* FUNCTION ENVIRONMENT                                        *
     662;*                                                             *
     663;* FUNCTION PROPERTIES                                         *
     664;*                            0 Auto, 35 SOE     *
     665;***************************************************************
     666
     667||buslatches_powercycle||:
     668;* --------------------------------------------------------------------------*
     669;* r5_0  assigned to $O$C1
     670$C$DW$25        .dwtag  DW_TAG_variable
     671        .dwattr $C$DW$25, DW_AT_name("$O$C1")
     672        .dwattr $C$DW$25, DW_AT_TI_symbol_name("$O$C1")
     673        .dwattr $C$DW$25, DW_AT_type(*$C$DW$T$78)
     674        .dwattr $C$DW$25, DW_AT_location[DW_OP_reg20]
     675
     676;* r4_0  assigned to $O$C2
     677$C$DW$26        .dwtag  DW_TAG_variable
     678        .dwattr $C$DW$26, DW_AT_name("$O$C2")
     679        .dwattr $C$DW$26, DW_AT_TI_symbol_name("$O$C2")
     680        .dwattr $C$DW$26, DW_AT_type(*$C$DW$T$6)
     681        .dwattr $C$DW$26, DW_AT_location[DW_OP_reg16]
     682
     683;* r4_0  assigned to $O$C3
     684$C$DW$27        .dwtag  DW_TAG_variable
     685        .dwattr $C$DW$27, DW_AT_name("$O$C3")
     686        .dwattr $C$DW$27, DW_AT_TI_symbol_name("$O$C3")
     687        .dwattr $C$DW$27, DW_AT_type(*$C$DW$T$6)
     688        .dwattr $C$DW$27, DW_AT_location[DW_OP_reg16]
     689
     690;* r4_0  assigned to $O$C4
     691$C$DW$28        .dwtag  DW_TAG_variable
     692        .dwattr $C$DW$28, DW_AT_name("$O$C4")
     693        .dwattr $C$DW$28, DW_AT_TI_symbol_name("$O$C4")
     694        .dwattr $C$DW$28, DW_AT_type(*$C$DW$T$6)
     695        .dwattr $C$DW$28, DW_AT_location[DW_OP_reg16]
     696
     697;* r4_0  assigned to $O$C5
     698$C$DW$29        .dwtag  DW_TAG_variable
     699        .dwattr $C$DW$29, DW_AT_name("$O$C5")
     700        .dwattr $C$DW$29, DW_AT_TI_symbol_name("$O$C5")
     701        .dwattr $C$DW$29, DW_AT_type(*$C$DW$T$6)
     702        .dwattr $C$DW$29, DW_AT_location[DW_OP_reg16]
     703
     704;* r4_0  assigned to _tmpval
     705$C$DW$30        .dwtag  DW_TAG_variable
     706        .dwattr $C$DW$30, DW_AT_name("_tmpval")
PRU Assembler Unix v2.3.1 Sun Mar 31 20:55:30 2019

Tools Copyright (c) 2012-2017 Texas Instruments Incorporated
pru1_buslatches.asm                                                  PAGE   14

     707        .dwattr $C$DW$30, DW_AT_TI_symbol_name("_tmpval")
     708        .dwattr $C$DW$30, DW_AT_type(*$C$DW$T$36)
     709        .dwattr $C$DW$30, DW_AT_location[DW_OP_reg16]
     710
     711;* r4_0  assigned to _tmpval
     712$C$DW$31        .dwtag  DW_TAG_variable
     713        .dwattr $C$DW$31, DW_AT_name("_tmpval")
     714        .dwattr $C$DW$31, DW_AT_TI_symbol_name("_tmpval")
     715        .dwattr $C$DW$31, DW_AT_type(*$C$DW$T$36)
     716        .dwattr $C$DW$31, DW_AT_location[DW_OP_reg16]
     717
     718;* r4_0  assigned to _tmpval
     719$C$DW$32        .dwtag  DW_TAG_variable
     720        .dwattr $C$DW$32, DW_AT_name("_tmpval")
     721        .dwattr $C$DW$32, DW_AT_TI_symbol_name("_tmpval")
     722        .dwattr $C$DW$32, DW_AT_type(*$C$DW$T$36)
     723        .dwattr $C$DW$32, DW_AT_location[DW_OP_reg16]
     724
     725;* r4_0  assigned to _tmpval
     726$C$DW$33        .dwtag  DW_TAG_variable
     727        .dwattr $C$DW$33, DW_AT_name("_tmpval")
     728        .dwattr $C$DW$33, DW_AT_TI_symbol_name("_tmpval")
     729        .dwattr $C$DW$33, DW_AT_type(*$C$DW$T$36)
     730        .dwattr $C$DW$33, DW_AT_location[DW_OP_reg16]
     731
     732        .dwcfi  cfa_offset, 0
     733;*** 165        -----------------------    _tmpval = C$5 = (unsigned char)(*(C$1 = &buslatches+7)|0x10
     734;*** 165        -----------------------    buslatches_pru0_dataout((unsigned)C$5);
     735;*** 165        -----------------------    __R30 = 1792u;
     736;*** 165        -----------------------    *C$1 = _tmpval;
     737;*** 165        -----------------------    __delay_cycles(4u);
     738;*** 165        -----------------------    __R30 = 3840u;
     739;*** 166        -----------------------    __delay_cycles(0x2faf080u);
     740;*** 167        -----------------------    _tmpval = C$4 = (unsigned char)(*C$1|0x20);
     741;*** 167        -----------------------    buslatches_pru0_dataout((unsigned)C$4);
     742;*** 167        -----------------------    __R30 = 1792u;
     743;*** 167        -----------------------    *C$1 = _tmpval;
     744;*** 167        -----------------------    __delay_cycles(4u);
     745;*** 167        -----------------------    __R30 = 3840u;
     746;*** 168        -----------------------    __delay_cycles(0x2faf080u);
     747;*** 169        -----------------------    _tmpval = C$3 = (unsigned char)(*C$1&0xef);
     748;*** 169        -----------------------    buslatches_pru0_dataout((unsigned)C$3);
     749;*** 169        -----------------------    __R30 = 1792u;
     750;*** 169        -----------------------    *C$1 = _tmpval;
     751;*** 169        -----------------------    __delay_cycles(4u);
     752;*** 169        -----------------------    __R30 = 3840u;
     753;*** 170        -----------------------    __delay_cycles(0x2faf080u);
     754;*** 171        -----------------------    _tmpval = C$2 = (unsigned char)(*C$1&0xdf);
     755;*** 171        -----------------------    buslatches_pru0_dataout((unsigned)C$2);
     756;*** 171        -----------------------    __R30 = 1792u;
     757;*** 171        -----------------------    *C$1 = _tmpval;
     758;*** 171        -----------------------    __delay_cycles(4u);
     759;*** 171        -----------------------    __R30 = 3840u;
     760;***    -----------------------    return;
     761 00000000 0000000523E2E2          SUB       r2, r2, 0x23          ; [ALU_PRU] 
PRU Assembler Unix v2.3.1 Sun Mar 31 20:55:30 2019

Tools Copyright (c) 2012-2017 Texas Instruments Incorporated
pru1_buslatches.asm                                                  PAGE   15

     762        .dwcfi  cfa_offset, 35
     763 00000004 000000E1002243          SBBO      &r3.b2, r2, 0, 3      ; [ALU_PRU] 
     764        .dwcfi  save_reg_to_mem, 14, -35
     765        .dwcfi  save_reg_to_mem, 15, -34
     766        .dwcfi  save_reg_to_mem, 16, -33
     767 00000008 000000E303E285          SBBO      &r5.b0, r2, 3, 32     ; [ALU_PRU] 
     768        .dwcfi  save_reg_to_mem, 20, -32
     769        .dwcfi  save_reg_to_mem, 21, -31
     770        .dwcfi  save_reg_to_mem, 22, -30
     771        .dwcfi  save_reg_to_mem, 23, -29
     772        .dwcfi  save_reg_to_mem, 24, -28
     773        .dwcfi  save_reg_to_mem, 25, -27
     774        .dwcfi  save_reg_to_mem, 26, -26
     775        .dwcfi  save_reg_to_mem, 27, -25
     776        .dwcfi  save_reg_to_mem, 28, -24
     777        .dwcfi  save_reg_to_mem, 29, -23
     778        .dwcfi  save_reg_to_mem, 30, -22
     779        .dwcfi  save_reg_to_mem, 31, -21
     780        .dwcfi  save_reg_to_mem, 32, -20
     781        .dwcfi  save_reg_to_mem, 33, -19
     782        .dwcfi  save_reg_to_mem, 34, -18
     783        .dwcfi  save_reg_to_mem, 35, -17
     784        .dwcfi  save_reg_to_mem, 36, -16
     785        .dwcfi  save_reg_to_mem, 37, -15
     786        .dwcfi  save_reg_to_mem, 38, -14
     787        .dwcfi  save_reg_to_mem, 39, -13
     788        .dwcfi  save_reg_to_mem, 40, -12
     789        .dwcfi  save_reg_to_mem, 41, -11
     790        .dwcfi  save_reg_to_mem, 42, -10
     791        .dwcfi  save_reg_to_mem, 43, -9
     792        .dwcfi  save_reg_to_mem, 44, -8
     793        .dwcfi  save_reg_to_mem, 45, -7
     794        .dwcfi  save_reg_to_mem, 46, -6
     795        .dwcfi  save_reg_to_mem, 47, -5
     796        .dwcfi  save_reg_to_mem, 48, -4
     797        .dwcfi  save_reg_to_mem, 49, -3
     798        .dwcfi  save_reg_to_mem, 50, -2
     799        .dwcfi  save_reg_to_mem, 51, -1
     800        .dwpsn  file "pru1_buslatches.c",line 165,column 2,is_stmt,isa 0
     801;----------------------------------------------------------------------
     802; 165 | buslatches_setbits(7, BIT(4), BIT(4)); // ACLO asserted                
     803;----------------------------------------------------------------------
     804 0000000c 000000240007E5!         LDI       r5, ||buslatches||+7  ; [ALU_PRU] |165| $O$C1,buslatches
     805 00000010 000000F1000500          LBBO      &r0.b0, r5, 0, 1      ; [ALU_PRU] |165| $O$C1
     806 00000014 0000001F040004          SET       r4.b0, r0.b0, 0x00000004 ; [ALU_PRU] |165| $O$C5
     807 00000018 000000100404EE          MOV       r14, r4.b0            ; [ALU_PRU] |165| $O$C5
     808$C$DW$34        .dwtag  DW_TAG_TI_branch
     809        .dwattr $C$DW$34, DW_AT_low_pc(0x00)
     810        .dwattr $C$DW$34, DW_AT_name("buslatches_pru0_dataout")
     811        .dwattr $C$DW$34, DW_AT_TI_call
     812
     813 0000001c 000000230000C3!         JAL       r3.w2, ||buslatches_pru0_dataout|| ; [ALU_PRU] |165| buslatches_pru0_dataout
     814 00000020 000000240700FE          LDI       r30, 0x0700           ; [ALU_PRU] |165| 
     815 00000024 000000E1000504          SBBO      &r4.b0, r5, 0, 1      ; [ALU_PRU] |165| $O$C1,_tmpval
     816        .newblock
PRU Assembler Unix v2.3.1 Sun Mar 31 20:55:30 2019

Tools Copyright (c) 2012-2017 Texas Instruments Incorporated
pru1_buslatches.asm                                                  PAGE   16

     817 00000028 00018C240000CC          LDI32    r12, 1
         0000002f 00000000004024 
     818 00000030 0000000501ECEC  $1:     SUB      r12, r12, 1
     819 00000034 0000006F00ECFF          QBNE     $1, r12, 0            ; [ALU_PRU] |165| 
     820 00000038 000000240F00FE          LDI       r30, 0x0f00           ; [ALU_PRU] |165| 
     821        .dwpsn  file "pru1_buslatches.c",line 166,column 2,is_stmt,isa 0
     822;----------------------------------------------------------------------
     823; 166 | __delay_cycles(MILLISECS(250)); // "power supply shuts down"           
     824;----------------------------------------------------------------------
     825        .newblock
     826 0000003c 783F8B24017DCB          LDI32    r11, 24999999
         00000043 00000000004024 
     827 00000044 0000000501EBEB  $1:     SUB      r11, r11, 1
     828 00000048 0000006F00EBFF          QBNE     $1, r11, 0            ; [ALU_PRU] |166| 
     829        .dwpsn  file "pru1_buslatches.c",line 167,column 2,is_stmt,isa 0
     830;----------------------------------------------------------------------
     831; 167 | buslatches_setbits(7, BIT(5), BIT(5)); // DCLO asserted                
     832;----------------------------------------------------------------------
     833 0000004c 000000F1000500          LBBO      &r0.b0, r5, 0, 1      ; [ALU_PRU] |167| $O$C1
     834 00000050 0000001F050004          SET       r4.b0, r0.b0, 0x00000005 ; [ALU_PRU] |167| $O$C4
     835 00000054 000000100404EE          MOV       r14, r4.b0            ; [ALU_PRU] |167| $O$C4
     836$C$DW$35        .dwtag  DW_TAG_TI_branch
     837        .dwattr $C$DW$35, DW_AT_low_pc(0x00)
     838        .dwattr $C$DW$35, DW_AT_name("buslatches_pru0_dataout")
     839        .dwattr $C$DW$35, DW_AT_TI_call
     840
     841 00000058 000000230000C3!         JAL       r3.w2, ||buslatches_pru0_dataout|| ; [ALU_PRU] |167| buslatches_pru0_dataout
     842 0000005c 000000240700FE          LDI       r30, 0x0700           ; [ALU_PRU] |167| 
     843 00000060 000000E1000504          SBBO      &r4.b0, r5, 0, 1      ; [ALU_PRU] |167| $O$C1,_tmpval
     844        .newblock
     845 00000064 00018A240000CA          LDI32    r10, 1
         0000006b 00000000004024 
     846 0000006c 0000000501EAEA  $1:     SUB      r10, r10, 1
     847 00000070 0000006F00EAFF          QBNE     $1, r10, 0            ; [ALU_PRU] |167| 
     848 00000074 000000240F00FE          LDI       r30, 0x0f00           ; [ALU_PRU] |167| 
     849        .dwpsn  file "pru1_buslatches.c",line 168,column 2,is_stmt,isa 0
     850;----------------------------------------------------------------------
     851; 168 | __delay_cycles(MILLISECS(250)); // "power is OFF now"                  
     852;----------------------------------------------------------------------
     853        .newblock
     854 00000078 783F8924017DC9          LDI32    r9, 24999999
         0000007f 00000000004024 
     855 00000080 0000000501E9E9  $1:     SUB      r9, r9, 1
     856 00000084 0000006F00E9FF          QBNE     $1, r9, 0             ; [ALU_PRU] |168| 
     857        .dwpsn  file "pru1_buslatches.c",line 169,column 2,is_stmt,isa 0
     858;----------------------------------------------------------------------
     859; 169 | buslatches_setbits(7, BIT(4), 0); // ACLO deasserted                   
     860;----------------------------------------------------------------------
     861 00000088 000000F1000500          LBBO      &r0.b0, r5, 0, 1      ; [ALU_PRU] |169| $O$C1
     862 0000008c 00000011EF0004          AND       r4.b0, r0.b0, 0xef    ; [ALU_PRU] |169| $O$C3
     863 00000090 000000100404EE          MOV       r14, r4.b0            ; [ALU_PRU] |169| $O$C3
     864$C$DW$36        .dwtag  DW_TAG_TI_branch
     865        .dwattr $C$DW$36, DW_AT_low_pc(0x00)
     866        .dwattr $C$DW$36, DW_AT_name("buslatches_pru0_dataout")
     867        .dwattr $C$DW$36, DW_AT_TI_call
PRU Assembler Unix v2.3.1 Sun Mar 31 20:55:30 2019

Tools Copyright (c) 2012-2017 Texas Instruments Incorporated
pru1_buslatches.asm                                                  PAGE   17

     868
     869 00000094 000000230000C3!         JAL       r3.w2, ||buslatches_pru0_dataout|| ; [ALU_PRU] |169| buslatches_pru0_dataout
     870 00000098 000000240700FE          LDI       r30, 0x0700           ; [ALU_PRU] |169| 
     871 0000009c 000000E1000504          SBBO      &r4.b0, r5, 0, 1      ; [ALU_PRU] |169| $O$C1,_tmpval
     872        .newblock
     873 000000a0 000188240000C8          LDI32    r8, 1
         000000a7 00000000004024 
     874 000000a8 0000000501E8E8  $1:     SUB      r8, r8, 1
     875 000000ac 0000006F00E8FF          QBNE     $1, r8, 0             ; [ALU_PRU] |169| 
     876 000000b0 000000240F00FE          LDI       r30, 0x0f00           ; [ALU_PRU] |169| 
     877        .dwpsn  file "pru1_buslatches.c",line 170,column 2,is_stmt,isa 0
     878;----------------------------------------------------------------------
     879; 170 | __delay_cycles(MILLISECS(250)); // "power supply stabilizing"          
     880;----------------------------------------------------------------------
     881        .newblock
     882 000000b4 783F8724017DC7          LDI32    r7, 24999999
         000000bb 00000000004024 
     883 000000bc 0000000501E7E7  $1:     SUB      r7, r7, 1
     884 000000c0 0000006F00E7FF          QBNE     $1, r7, 0             ; [ALU_PRU] |170| 
     885        .dwpsn  file "pru1_buslatches.c",line 171,column 2,is_stmt,isa 0
     886;----------------------------------------------------------------------
     887; 171 | buslatches_setbits(7, BIT(5), 0); // DCLO deasserted                   
     888; 172 | // CPU has to generate INIT and BBSY                                   
     889;----------------------------------------------------------------------
     890 000000c4 000000F1000500          LBBO      &r0.b0, r5, 0, 1      ; [ALU_PRU] |171| $O$C1
     891 000000c8 00000011DF0004          AND       r4.b0, r0.b0, 0xdf    ; [ALU_PRU] |171| $O$C2
     892 000000cc 000000100404EE          MOV       r14, r4.b0            ; [ALU_PRU] |171| $O$C2
     893$C$DW$37        .dwtag  DW_TAG_TI_branch
     894        .dwattr $C$DW$37, DW_AT_low_pc(0x00)
     895        .dwattr $C$DW$37, DW_AT_name("buslatches_pru0_dataout")
     896        .dwattr $C$DW$37, DW_AT_TI_call
     897
     898 000000d0 000000230000C3!         JAL       r3.w2, ||buslatches_pru0_dataout|| ; [ALU_PRU] |171| buslatches_pru0_dataout
     899 000000d4 000000240700FE          LDI       r30, 0x0700           ; [ALU_PRU] |171| 
     900 000000d8 000000E1000504          SBBO      &r4.b0, r5, 0, 1      ; [ALU_PRU] |171| $O$C1,_tmpval
     901        .newblock
     902 000000dc 000186240000C6          LDI32    r6, 1
         000000e3 00000000004024 
     903 000000e4 0000000501E6E6  $1:     SUB      r6, r6, 1
     904 000000e8 0000006F00E6FF          QBNE     $1, r6, 0             ; [ALU_PRU] |171| 
     905 000000ec 000000240F00FE          LDI       r30, 0x0f00           ; [ALU_PRU] |171| 
     906 000000f0 000000F1002243          LBBO      &r3.b2, r2, 0, 3      ; [ALU_PRU] 
     907        .dwcfi  restore_reg, 14
     908        .dwcfi  restore_reg, 15
     909        .dwcfi  restore_reg, 16
     910 000000f4 000000F303E285          LBBO      &r5.b0, r2, 3, 32     ; [ALU_PRU] 
     911        .dwcfi  restore_reg, 20
     912        .dwcfi  restore_reg, 21
     913        .dwcfi  restore_reg, 22
     914        .dwcfi  restore_reg, 23
     915        .dwcfi  restore_reg, 24
     916        .dwcfi  restore_reg, 25
     917        .dwcfi  restore_reg, 26
     918        .dwcfi  restore_reg, 27
     919        .dwcfi  restore_reg, 28
PRU Assembler Unix v2.3.1 Sun Mar 31 20:55:30 2019

Tools Copyright (c) 2012-2017 Texas Instruments Incorporated
pru1_buslatches.asm                                                  PAGE   18

     920        .dwcfi  restore_reg, 29
     921        .dwcfi  restore_reg, 30
     922        .dwcfi  restore_reg, 31
     923        .dwcfi  restore_reg, 32
     924        .dwcfi  restore_reg, 33
     925        .dwcfi  restore_reg, 34
     926        .dwcfi  restore_reg, 35
     927        .dwcfi  restore_reg, 36
     928        .dwcfi  restore_reg, 37
     929        .dwcfi  restore_reg, 38
     930        .dwcfi  restore_reg, 39
     931        .dwcfi  restore_reg, 40
     932        .dwcfi  restore_reg, 41
     933        .dwcfi  restore_reg, 42
     934        .dwcfi  restore_reg, 43
     935        .dwcfi  restore_reg, 44
     936        .dwcfi  restore_reg, 45
     937        .dwcfi  restore_reg, 46
     938        .dwcfi  restore_reg, 47
     939        .dwcfi  restore_reg, 48
     940        .dwcfi  restore_reg, 49
     941        .dwcfi  restore_reg, 50
     942        .dwcfi  restore_reg, 51
     943 000000f8 0000000123E2E2          ADD       r2, r2, 0x23          ; [ALU_PRU] 
     944        .dwcfi  cfa_offset, 0
     945$C$DW$38        .dwtag  DW_TAG_TI_branch
     946        .dwattr $C$DW$38, DW_AT_low_pc(0x00)
     947        .dwattr $C$DW$38, DW_AT_TI_return
     948
     949 000000fc 00000020C30000          JMP       r3.w2                 ; [ALU_PRU] 
     950        .dwattr $C$DW$24, DW_AT_TI_end_file("pru1_buslatches.c")
     951        .dwattr $C$DW$24, DW_AT_TI_end_line(0xad)
     952        .dwattr $C$DW$24, DW_AT_TI_end_column(0x01)
     953        .dwendentry
     954        .dwendtag $C$DW$24
     955
     956;*****************************************************************************
     957;* UNDEFINED EXTERNAL REFERENCES                                             *
     958;*****************************************************************************
     959        .global ||buslatches_pru0_dataout||
     960
     961;******************************************************************************
     962;* TYPE INFORMATION                                                           *
     963;******************************************************************************
     964
     965$C$DW$T$19      .dwtag  DW_TAG_structure_type
     966        .dwattr $C$DW$T$19, DW_AT_byte_size(0x04)
     967$C$DW$39        .dwtag  DW_TAG_member
     968        .dwattr $C$DW$39, DW_AT_type(*$C$DW$T$11)
     969        .dwattr $C$DW$39, DW_AT_name("REVID")
     970        .dwattr $C$DW$39, DW_AT_TI_symbol_name("REVID")
     971        .dwattr $C$DW$39, DW_AT_bit_offset(0x00)
     972        .dwattr $C$DW$39, DW_AT_bit_size(0x20)
     973        .dwattr $C$DW$39, DW_AT_data_member_location[DW_OP_plus_uconst 0x0]
     974        .dwattr $C$DW$39, DW_AT_accessibility(DW_ACCESS_public)
PRU Assembler Unix v2.3.1 Sun Mar 31 20:55:30 2019

Tools Copyright (c) 2012-2017 Texas Instruments Incorporated
pru1_buslatches.asm                                                  PAGE   19

     975        .dwattr $C$DW$39, DW_AT_decl_file("/home/joerg/retrocmp/dec/UniBone/91_3rd_party/pru-c-compile
     976        .dwattr $C$DW$39, DW_AT_decl_line(0x2d)
     977        .dwattr $C$DW$39, DW_AT_decl_column(0x0d)
     978
     979        .dwattr $C$DW$T$19, DW_AT_decl_file("/home/joerg/retrocmp/dec/UniBone/91_3rd_party/pru-c-compi
     980        .dwattr $C$DW$T$19, DW_AT_decl_line(0x2c)
     981        .dwattr $C$DW$T$19, DW_AT_decl_column(0x13)
     982        .dwendtag $C$DW$T$19
     983
     984$C$DW$T$40      .dwtag  DW_TAG_volatile_type
     985        .dwattr $C$DW$T$40, DW_AT_type(*$C$DW$T$19)
     986
     987
     988$C$DW$T$20      .dwtag  DW_TAG_structure_type
     989        .dwattr $C$DW$T$20, DW_AT_byte_size(0x04)
     990$C$DW$40        .dwtag  DW_TAG_member
     991        .dwattr $C$DW$40, DW_AT_type(*$C$DW$T$11)
     992        .dwattr $C$DW$40, DW_AT_name("IDLE_MODE")
     993        .dwattr $C$DW$40, DW_AT_TI_symbol_name("IDLE_MODE")
     994        .dwattr $C$DW$40, DW_AT_bit_offset(0x1e)
     995        .dwattr $C$DW$40, DW_AT_bit_size(0x02)
     996        .dwattr $C$DW$40, DW_AT_data_member_location[DW_OP_plus_uconst 0x0]
     997        .dwattr $C$DW$40, DW_AT_accessibility(DW_ACCESS_public)
     998        .dwattr $C$DW$40, DW_AT_decl_file("/home/joerg/retrocmp/dec/UniBone/91_3rd_party/pru-c-compile
     999        .dwattr $C$DW$40, DW_AT_decl_line(0x37)
    1000        .dwattr $C$DW$40, DW_AT_decl_column(0x0d)
    1001
    1002$C$DW$41        .dwtag  DW_TAG_member
    1003        .dwattr $C$DW$41, DW_AT_type(*$C$DW$T$11)
    1004        .dwattr $C$DW$41, DW_AT_name("STANDBY_MODE")
    1005        .dwattr $C$DW$41, DW_AT_TI_symbol_name("STANDBY_MODE")
    1006        .dwattr $C$DW$41, DW_AT_bit_offset(0x1c)
    1007        .dwattr $C$DW$41, DW_AT_bit_size(0x02)
    1008        .dwattr $C$DW$41, DW_AT_data_member_location[DW_OP_plus_uconst 0x0]
    1009        .dwattr $C$DW$41, DW_AT_accessibility(DW_ACCESS_public)
    1010        .dwattr $C$DW$41, DW_AT_decl_file("/home/joerg/retrocmp/dec/UniBone/91_3rd_party/pru-c-compile
    1011        .dwattr $C$DW$41, DW_AT_decl_line(0x38)
    1012        .dwattr $C$DW$41, DW_AT_decl_column(0x0d)
    1013
    1014$C$DW$42        .dwtag  DW_TAG_member
    1015        .dwattr $C$DW$42, DW_AT_type(*$C$DW$T$11)
    1016        .dwattr $C$DW$42, DW_AT_name("STANDBY_INIT")
    1017        .dwattr $C$DW$42, DW_AT_TI_symbol_name("STANDBY_INIT")
    1018        .dwattr $C$DW$42, DW_AT_bit_offset(0x1b)
    1019        .dwattr $C$DW$42, DW_AT_bit_size(0x01)
    1020        .dwattr $C$DW$42, DW_AT_data_member_location[DW_OP_plus_uconst 0x0]
    1021        .dwattr $C$DW$42, DW_AT_accessibility(DW_ACCESS_public)
    1022        .dwattr $C$DW$42, DW_AT_decl_file("/home/joerg/retrocmp/dec/UniBone/91_3rd_party/pru-c-compile
    1023        .dwattr $C$DW$42, DW_AT_decl_line(0x39)
    1024        .dwattr $C$DW$42, DW_AT_decl_column(0x0d)
    1025
    1026$C$DW$43        .dwtag  DW_TAG_member
    1027        .dwattr $C$DW$43, DW_AT_type(*$C$DW$T$11)
    1028        .dwattr $C$DW$43, DW_AT_name("SUB_MWAIT")
    1029        .dwattr $C$DW$43, DW_AT_TI_symbol_name("SUB_MWAIT")
PRU Assembler Unix v2.3.1 Sun Mar 31 20:55:30 2019

Tools Copyright (c) 2012-2017 Texas Instruments Incorporated
pru1_buslatches.asm                                                  PAGE   20

    1030        .dwattr $C$DW$43, DW_AT_bit_offset(0x1a)
    1031        .dwattr $C$DW$43, DW_AT_bit_size(0x01)
    1032        .dwattr $C$DW$43, DW_AT_data_member_location[DW_OP_plus_uconst 0x0]
    1033        .dwattr $C$DW$43, DW_AT_accessibility(DW_ACCESS_public)
    1034        .dwattr $C$DW$43, DW_AT_decl_file("/home/joerg/retrocmp/dec/UniBone/91_3rd_party/pru-c-compile
    1035        .dwattr $C$DW$43, DW_AT_decl_line(0x3a)
    1036        .dwattr $C$DW$43, DW_AT_decl_column(0x0d)
    1037
    1038$C$DW$44        .dwtag  DW_TAG_member
    1039        .dwattr $C$DW$44, DW_AT_type(*$C$DW$T$11)
    1040        .dwattr $C$DW$44, DW_AT_name("rsvd6")
    1041        .dwattr $C$DW$44, DW_AT_TI_symbol_name("rsvd6")
    1042        .dwattr $C$DW$44, DW_AT_bit_offset(0x00)
    1043        .dwattr $C$DW$44, DW_AT_bit_size(0x1a)
    1044        .dwattr $C$DW$44, DW_AT_data_member_location[DW_OP_plus_uconst 0x0]
    1045        .dwattr $C$DW$44, DW_AT_accessibility(DW_ACCESS_public)
    1046        .dwattr $C$DW$44, DW_AT_decl_file("/home/joerg/retrocmp/dec/UniBone/91_3rd_party/pru-c-compile
    1047        .dwattr $C$DW$44, DW_AT_decl_line(0x3b)
    1048        .dwattr $C$DW$44, DW_AT_decl_column(0x0d)
    1049
    1050        .dwattr $C$DW$T$20, DW_AT_decl_file("/home/joerg/retrocmp/dec/UniBone/91_3rd_party/pru-c-compi
    1051        .dwattr $C$DW$T$20, DW_AT_decl_line(0x36)
    1052        .dwattr $C$DW$T$20, DW_AT_decl_column(0x13)
    1053        .dwendtag $C$DW$T$20
    1054
    1055$C$DW$T$42      .dwtag  DW_TAG_volatile_type
    1056        .dwattr $C$DW$T$42, DW_AT_type(*$C$DW$T$20)
    1057
    1058
    1059$C$DW$T$21      .dwtag  DW_TAG_structure_type
    1060        .dwattr $C$DW$T$21, DW_AT_byte_size(0x04)
    1061$C$DW$45        .dwtag  DW_TAG_member
    1062        .dwattr $C$DW$45, DW_AT_type(*$C$DW$T$11)
    1063        .dwattr $C$DW$45, DW_AT_name("PRU0_GPI_MODE")
    1064        .dwattr $C$DW$45, DW_AT_TI_symbol_name("PRU0_GPI_MODE")
    1065        .dwattr $C$DW$45, DW_AT_bit_offset(0x1e)
    1066        .dwattr $C$DW$45, DW_AT_bit_size(0x02)
    1067        .dwattr $C$DW$45, DW_AT_data_member_location[DW_OP_plus_uconst 0x0]
    1068        .dwattr $C$DW$45, DW_AT_accessibility(DW_ACCESS_public)
    1069        .dwattr $C$DW$45, DW_AT_decl_file("/home/joerg/retrocmp/dec/UniBone/91_3rd_party/pru-c-compile
    1070        .dwattr $C$DW$45, DW_AT_decl_line(0x45)
    1071        .dwattr $C$DW$45, DW_AT_decl_column(0x0d)
    1072
    1073$C$DW$46        .dwtag  DW_TAG_member
    1074        .dwattr $C$DW$46, DW_AT_type(*$C$DW$T$11)
    1075        .dwattr $C$DW$46, DW_AT_name("PRU0_GPI_CLK_MODE")
    1076        .dwattr $C$DW$46, DW_AT_TI_symbol_name("PRU0_GPI_CLK_MODE")
    1077        .dwattr $C$DW$46, DW_AT_bit_offset(0x1d)
    1078        .dwattr $C$DW$46, DW_AT_bit_size(0x01)
    1079        .dwattr $C$DW$46, DW_AT_data_member_location[DW_OP_plus_uconst 0x0]
    1080        .dwattr $C$DW$46, DW_AT_accessibility(DW_ACCESS_public)
    1081        .dwattr $C$DW$46, DW_AT_decl_file("/home/joerg/retrocmp/dec/UniBone/91_3rd_party/pru-c-compile
    1082        .dwattr $C$DW$46, DW_AT_decl_line(0x46)
    1083        .dwattr $C$DW$46, DW_AT_decl_column(0x0d)
    1084
PRU Assembler Unix v2.3.1 Sun Mar 31 20:55:30 2019

Tools Copyright (c) 2012-2017 Texas Instruments Incorporated
pru1_buslatches.asm                                                  PAGE   21

    1085$C$DW$47        .dwtag  DW_TAG_member
    1086        .dwattr $C$DW$47, DW_AT_type(*$C$DW$T$11)
    1087        .dwattr $C$DW$47, DW_AT_name("PRU0_GPI_DIV0")
    1088        .dwattr $C$DW$47, DW_AT_TI_symbol_name("PRU0_GPI_DIV0")
    1089        .dwattr $C$DW$47, DW_AT_bit_offset(0x18)
    1090        .dwattr $C$DW$47, DW_AT_bit_size(0x05)
    1091        .dwattr $C$DW$47, DW_AT_data_member_location[DW_OP_plus_uconst 0x0]
    1092        .dwattr $C$DW$47, DW_AT_accessibility(DW_ACCESS_public)
    1093        .dwattr $C$DW$47, DW_AT_decl_file("/home/joerg/retrocmp/dec/UniBone/91_3rd_party/pru-c-compile
    1094        .dwattr $C$DW$47, DW_AT_decl_line(0x47)
    1095        .dwattr $C$DW$47, DW_AT_decl_column(0x0d)
    1096
    1097$C$DW$48        .dwtag  DW_TAG_member
    1098        .dwattr $C$DW$48, DW_AT_type(*$C$DW$T$11)
    1099        .dwattr $C$DW$48, DW_AT_name("PRU0_GPI_DIV1")
    1100        .dwattr $C$DW$48, DW_AT_TI_symbol_name("PRU0_GPI_DIV1")
    1101        .dwattr $C$DW$48, DW_AT_bit_offset(0x13)
    1102        .dwattr $C$DW$48, DW_AT_bit_size(0x05)
    1103        .dwattr $C$DW$48, DW_AT_data_member_location[DW_OP_plus_uconst 0x0]
    1104        .dwattr $C$DW$48, DW_AT_accessibility(DW_ACCESS_public)
    1105        .dwattr $C$DW$48, DW_AT_decl_file("/home/joerg/retrocmp/dec/UniBone/91_3rd_party/pru-c-compile
    1106        .dwattr $C$DW$48, DW_AT_decl_line(0x48)
    1107        .dwattr $C$DW$48, DW_AT_decl_column(0x0d)
    1108
    1109$C$DW$49        .dwtag  DW_TAG_member
    1110        .dwattr $C$DW$49, DW_AT_type(*$C$DW$T$11)
    1111        .dwattr $C$DW$49, DW_AT_name("PRU0_GPI_SB")
    1112        .dwattr $C$DW$49, DW_AT_TI_symbol_name("PRU0_GPI_SB")
    1113        .dwattr $C$DW$49, DW_AT_bit_offset(0x12)
    1114        .dwattr $C$DW$49, DW_AT_bit_size(0x01)
    1115        .dwattr $C$DW$49, DW_AT_data_member_location[DW_OP_plus_uconst 0x0]
    1116        .dwattr $C$DW$49, DW_AT_accessibility(DW_ACCESS_public)
    1117        .dwattr $C$DW$49, DW_AT_decl_file("/home/joerg/retrocmp/dec/UniBone/91_3rd_party/pru-c-compile
    1118        .dwattr $C$DW$49, DW_AT_decl_line(0x49)
    1119        .dwattr $C$DW$49, DW_AT_decl_column(0x0d)
    1120
    1121$C$DW$50        .dwtag  DW_TAG_member
    1122        .dwattr $C$DW$50, DW_AT_type(*$C$DW$T$11)
    1123        .dwattr $C$DW$50, DW_AT_name("PRU0_GPO_MODE")
    1124        .dwattr $C$DW$50, DW_AT_TI_symbol_name("PRU0_GPO_MODE")
    1125        .dwattr $C$DW$50, DW_AT_bit_offset(0x11)
    1126        .dwattr $C$DW$50, DW_AT_bit_size(0x01)
    1127        .dwattr $C$DW$50, DW_AT_data_member_location[DW_OP_plus_uconst 0x0]
    1128        .dwattr $C$DW$50, DW_AT_accessibility(DW_ACCESS_public)
    1129        .dwattr $C$DW$50, DW_AT_decl_file("/home/joerg/retrocmp/dec/UniBone/91_3rd_party/pru-c-compile
    1130        .dwattr $C$DW$50, DW_AT_decl_line(0x4a)
    1131        .dwattr $C$DW$50, DW_AT_decl_column(0x0d)
    1132
    1133$C$DW$51        .dwtag  DW_TAG_member
    1134        .dwattr $C$DW$51, DW_AT_type(*$C$DW$T$11)
    1135        .dwattr $C$DW$51, DW_AT_name("PRU0_GPO_DIV0")
    1136        .dwattr $C$DW$51, DW_AT_TI_symbol_name("PRU0_GPO_DIV0")
    1137        .dwattr $C$DW$51, DW_AT_bit_offset(0x0c)
    1138        .dwattr $C$DW$51, DW_AT_bit_size(0x05)
    1139        .dwattr $C$DW$51, DW_AT_data_member_location[DW_OP_plus_uconst 0x0]
PRU Assembler Unix v2.3.1 Sun Mar 31 20:55:30 2019

Tools Copyright (c) 2012-2017 Texas Instruments Incorporated
pru1_buslatches.asm                                                  PAGE   22

    1140        .dwattr $C$DW$51, DW_AT_accessibility(DW_ACCESS_public)
    1141        .dwattr $C$DW$51, DW_AT_decl_file("/home/joerg/retrocmp/dec/UniBone/91_3rd_party/pru-c-compile
    1142        .dwattr $C$DW$51, DW_AT_decl_line(0x4b)
    1143        .dwattr $C$DW$51, DW_AT_decl_column(0x0d)
    1144
    1145$C$DW$52        .dwtag  DW_TAG_member
    1146        .dwattr $C$DW$52, DW_AT_type(*$C$DW$T$11)
    1147        .dwattr $C$DW$52, DW_AT_name("PRU0_GPO_DIV1")
    1148        .dwattr $C$DW$52, DW_AT_TI_symbol_name("PRU0_GPO_DIV1")
    1149        .dwattr $C$DW$52, DW_AT_bit_offset(0x07)
    1150        .dwattr $C$DW$52, DW_AT_bit_size(0x05)
    1151        .dwattr $C$DW$52, DW_AT_data_member_location[DW_OP_plus_uconst 0x0]
    1152        .dwattr $C$DW$52, DW_AT_accessibility(DW_ACCESS_public)
    1153        .dwattr $C$DW$52, DW_AT_decl_file("/home/joerg/retrocmp/dec/UniBone/91_3rd_party/pru-c-compile
    1154        .dwattr $C$DW$52, DW_AT_decl_line(0x4c)
    1155        .dwattr $C$DW$52, DW_AT_decl_column(0x0d)
    1156
    1157$C$DW$53        .dwtag  DW_TAG_member
    1158        .dwattr $C$DW$53, DW_AT_type(*$C$DW$T$11)
    1159        .dwattr $C$DW$53, DW_AT_name("PRU0_GPO_SH_SEL")
    1160        .dwattr $C$DW$53, DW_AT_TI_symbol_name("PRU0_GPO_SH_SEL")
    1161        .dwattr $C$DW$53, DW_AT_bit_offset(0x06)
    1162        .dwattr $C$DW$53, DW_AT_bit_size(0x01)
    1163        .dwattr $C$DW$53, DW_AT_data_member_location[DW_OP_plus_uconst 0x0]
    1164        .dwattr $C$DW$53, DW_AT_accessibility(DW_ACCESS_public)
    1165        .dwattr $C$DW$53, DW_AT_decl_file("/home/joerg/retrocmp/dec/UniBone/91_3rd_party/pru-c-compile
    1166        .dwattr $C$DW$53, DW_AT_decl_line(0x4d)
    1167        .dwattr $C$DW$53, DW_AT_decl_column(0x0d)
    1168
    1169$C$DW$54        .dwtag  DW_TAG_member
    1170        .dwattr $C$DW$54, DW_AT_type(*$C$DW$T$11)
    1171        .dwattr $C$DW$54, DW_AT_name("rsvd26")
    1172        .dwattr $C$DW$54, DW_AT_TI_symbol_name("rsvd26")
    1173        .dwattr $C$DW$54, DW_AT_bit_offset(0x00)
    1174        .dwattr $C$DW$54, DW_AT_bit_size(0x06)
    1175        .dwattr $C$DW$54, DW_AT_data_member_location[DW_OP_plus_uconst 0x0]
    1176        .dwattr $C$DW$54, DW_AT_accessibility(DW_ACCESS_public)
    1177        .dwattr $C$DW$54, DW_AT_decl_file("/home/joerg/retrocmp/dec/UniBone/91_3rd_party/pru-c-compile
    1178        .dwattr $C$DW$54, DW_AT_decl_line(0x4e)
    1179        .dwattr $C$DW$54, DW_AT_decl_column(0x0d)
    1180
    1181        .dwattr $C$DW$T$21, DW_AT_decl_file("/home/joerg/retrocmp/dec/UniBone/91_3rd_party/pru-c-compi
    1182        .dwattr $C$DW$T$21, DW_AT_decl_line(0x44)
    1183        .dwattr $C$DW$T$21, DW_AT_decl_column(0x13)
    1184        .dwendtag $C$DW$T$21
    1185
    1186$C$DW$T$44      .dwtag  DW_TAG_volatile_type
    1187        .dwattr $C$DW$T$44, DW_AT_type(*$C$DW$T$21)
    1188
    1189
    1190$C$DW$T$22      .dwtag  DW_TAG_structure_type
    1191        .dwattr $C$DW$T$22, DW_AT_byte_size(0x04)
    1192$C$DW$55        .dwtag  DW_TAG_member
    1193        .dwattr $C$DW$55, DW_AT_type(*$C$DW$T$11)
    1194        .dwattr $C$DW$55, DW_AT_name("PRU1_GPI_MODE")
PRU Assembler Unix v2.3.1 Sun Mar 31 20:55:30 2019

Tools Copyright (c) 2012-2017 Texas Instruments Incorporated
pru1_buslatches.asm                                                  PAGE   23

    1195        .dwattr $C$DW$55, DW_AT_TI_symbol_name("PRU1_GPI_MODE")
    1196        .dwattr $C$DW$55, DW_AT_bit_offset(0x1e)
    1197        .dwattr $C$DW$55, DW_AT_bit_size(0x02)
    1198        .dwattr $C$DW$55, DW_AT_data_member_location[DW_OP_plus_uconst 0x0]
    1199        .dwattr $C$DW$55, DW_AT_accessibility(DW_ACCESS_public)
    1200        .dwattr $C$DW$55, DW_AT_decl_file("/home/joerg/retrocmp/dec/UniBone/91_3rd_party/pru-c-compile
    1201        .dwattr $C$DW$55, DW_AT_decl_line(0x58)
    1202        .dwattr $C$DW$55, DW_AT_decl_column(0x0d)
    1203
    1204$C$DW$56        .dwtag  DW_TAG_member
    1205        .dwattr $C$DW$56, DW_AT_type(*$C$DW$T$11)
    1206        .dwattr $C$DW$56, DW_AT_name("PRU1_GPI_CLK_MODE")
    1207        .dwattr $C$DW$56, DW_AT_TI_symbol_name("PRU1_GPI_CLK_MODE")
    1208        .dwattr $C$DW$56, DW_AT_bit_offset(0x1d)
    1209        .dwattr $C$DW$56, DW_AT_bit_size(0x01)
    1210        .dwattr $C$DW$56, DW_AT_data_member_location[DW_OP_plus_uconst 0x0]
    1211        .dwattr $C$DW$56, DW_AT_accessibility(DW_ACCESS_public)
    1212        .dwattr $C$DW$56, DW_AT_decl_file("/home/joerg/retrocmp/dec/UniBone/91_3rd_party/pru-c-compile
    1213        .dwattr $C$DW$56, DW_AT_decl_line(0x59)
    1214        .dwattr $C$DW$56, DW_AT_decl_column(0x0d)
    1215
    1216$C$DW$57        .dwtag  DW_TAG_member
    1217        .dwattr $C$DW$57, DW_AT_type(*$C$DW$T$11)
    1218        .dwattr $C$DW$57, DW_AT_name("PRU1_GPI_DIV0")
    1219        .dwattr $C$DW$57, DW_AT_TI_symbol_name("PRU1_GPI_DIV0")
    1220        .dwattr $C$DW$57, DW_AT_bit_offset(0x18)
    1221        .dwattr $C$DW$57, DW_AT_bit_size(0x05)
    1222        .dwattr $C$DW$57, DW_AT_data_member_location[DW_OP_plus_uconst 0x0]
    1223        .dwattr $C$DW$57, DW_AT_accessibility(DW_ACCESS_public)
    1224        .dwattr $C$DW$57, DW_AT_decl_file("/home/joerg/retrocmp/dec/UniBone/91_3rd_party/pru-c-compile
    1225        .dwattr $C$DW$57, DW_AT_decl_line(0x5a)
    1226        .dwattr $C$DW$57, DW_AT_decl_column(0x0d)
    1227
    1228$C$DW$58        .dwtag  DW_TAG_member
    1229        .dwattr $C$DW$58, DW_AT_type(*$C$DW$T$11)
    1230        .dwattr $C$DW$58, DW_AT_name("PRU1_GPI_DIV1")
    1231        .dwattr $C$DW$58, DW_AT_TI_symbol_name("PRU1_GPI_DIV1")
    1232        .dwattr $C$DW$58, DW_AT_bit_offset(0x13)
    1233        .dwattr $C$DW$58, DW_AT_bit_size(0x05)
    1234        .dwattr $C$DW$58, DW_AT_data_member_location[DW_OP_plus_uconst 0x0]
    1235        .dwattr $C$DW$58, DW_AT_accessibility(DW_ACCESS_public)
    1236        .dwattr $C$DW$58, DW_AT_decl_file("/home/joerg/retrocmp/dec/UniBone/91_3rd_party/pru-c-compile
    1237        .dwattr $C$DW$58, DW_AT_decl_line(0x5b)
    1238        .dwattr $C$DW$58, DW_AT_decl_column(0x0d)
    1239
    1240$C$DW$59        .dwtag  DW_TAG_member
    1241        .dwattr $C$DW$59, DW_AT_type(*$C$DW$T$11)
    1242        .dwattr $C$DW$59, DW_AT_name("PRU1_GPI_SB")
    1243        .dwattr $C$DW$59, DW_AT_TI_symbol_name("PRU1_GPI_SB")
    1244        .dwattr $C$DW$59, DW_AT_bit_offset(0x12)
    1245        .dwattr $C$DW$59, DW_AT_bit_size(0x01)
    1246        .dwattr $C$DW$59, DW_AT_data_member_location[DW_OP_plus_uconst 0x0]
    1247        .dwattr $C$DW$59, DW_AT_accessibility(DW_ACCESS_public)
    1248        .dwattr $C$DW$59, DW_AT_decl_file("/home/joerg/retrocmp/dec/UniBone/91_3rd_party/pru-c-compile
    1249        .dwattr $C$DW$59, DW_AT_decl_line(0x5c)
PRU Assembler Unix v2.3.1 Sun Mar 31 20:55:30 2019

Tools Copyright (c) 2012-2017 Texas Instruments Incorporated
pru1_buslatches.asm                                                  PAGE   24

    1250        .dwattr $C$DW$59, DW_AT_decl_column(0x0d)
    1251
    1252$C$DW$60        .dwtag  DW_TAG_member
    1253        .dwattr $C$DW$60, DW_AT_type(*$C$DW$T$11)
    1254        .dwattr $C$DW$60, DW_AT_name("PRU1_GPO_MODE")
    1255        .dwattr $C$DW$60, DW_AT_TI_symbol_name("PRU1_GPO_MODE")
    1256        .dwattr $C$DW$60, DW_AT_bit_offset(0x11)
    1257        .dwattr $C$DW$60, DW_AT_bit_size(0x01)
    1258        .dwattr $C$DW$60, DW_AT_data_member_location[DW_OP_plus_uconst 0x0]
    1259        .dwattr $C$DW$60, DW_AT_accessibility(DW_ACCESS_public)
    1260        .dwattr $C$DW$60, DW_AT_decl_file("/home/joerg/retrocmp/dec/UniBone/91_3rd_party/pru-c-compile
    1261        .dwattr $C$DW$60, DW_AT_decl_line(0x5d)
    1262        .dwattr $C$DW$60, DW_AT_decl_column(0x0d)
    1263
    1264$C$DW$61        .dwtag  DW_TAG_member
    1265        .dwattr $C$DW$61, DW_AT_type(*$C$DW$T$11)
    1266        .dwattr $C$DW$61, DW_AT_name("PRU1_GPO_DIV0")
    1267        .dwattr $C$DW$61, DW_AT_TI_symbol_name("PRU1_GPO_DIV0")
    1268        .dwattr $C$DW$61, DW_AT_bit_offset(0x0c)
    1269        .dwattr $C$DW$61, DW_AT_bit_size(0x05)
    1270        .dwattr $C$DW$61, DW_AT_data_member_location[DW_OP_plus_uconst 0x0]
    1271        .dwattr $C$DW$61, DW_AT_accessibility(DW_ACCESS_public)
    1272        .dwattr $C$DW$61, DW_AT_decl_file("/home/joerg/retrocmp/dec/UniBone/91_3rd_party/pru-c-compile
    1273        .dwattr $C$DW$61, DW_AT_decl_line(0x5e)
    1274        .dwattr $C$DW$61, DW_AT_decl_column(0x0d)
    1275
    1276$C$DW$62        .dwtag  DW_TAG_member
    1277        .dwattr $C$DW$62, DW_AT_type(*$C$DW$T$11)
    1278        .dwattr $C$DW$62, DW_AT_name("PRU1_GPO_DIV1")
    1279        .dwattr $C$DW$62, DW_AT_TI_symbol_name("PRU1_GPO_DIV1")
    1280        .dwattr $C$DW$62, DW_AT_bit_offset(0x07)
    1281        .dwattr $C$DW$62, DW_AT_bit_size(0x05)
    1282        .dwattr $C$DW$62, DW_AT_data_member_location[DW_OP_plus_uconst 0x0]
    1283        .dwattr $C$DW$62, DW_AT_accessibility(DW_ACCESS_public)
    1284        .dwattr $C$DW$62, DW_AT_decl_file("/home/joerg/retrocmp/dec/UniBone/91_3rd_party/pru-c-compile
    1285        .dwattr $C$DW$62, DW_AT_decl_line(0x5f)
    1286        .dwattr $C$DW$62, DW_AT_decl_column(0x0d)
    1287
    1288$C$DW$63        .dwtag  DW_TAG_member
    1289        .dwattr $C$DW$63, DW_AT_type(*$C$DW$T$11)
    1290        .dwattr $C$DW$63, DW_AT_name("PRU1_GPO_SH_SEL")
    1291        .dwattr $C$DW$63, DW_AT_TI_symbol_name("PRU1_GPO_SH_SEL")
    1292        .dwattr $C$DW$63, DW_AT_bit_offset(0x06)
    1293        .dwattr $C$DW$63, DW_AT_bit_size(0x01)
    1294        .dwattr $C$DW$63, DW_AT_data_member_location[DW_OP_plus_uconst 0x0]
    1295        .dwattr $C$DW$63, DW_AT_accessibility(DW_ACCESS_public)
    1296        .dwattr $C$DW$63, DW_AT_decl_file("/home/joerg/retrocmp/dec/UniBone/91_3rd_party/pru-c-compile
    1297        .dwattr $C$DW$63, DW_AT_decl_line(0x60)
    1298        .dwattr $C$DW$63, DW_AT_decl_column(0x0d)
    1299
    1300$C$DW$64        .dwtag  DW_TAG_member
    1301        .dwattr $C$DW$64, DW_AT_type(*$C$DW$T$11)
    1302        .dwattr $C$DW$64, DW_AT_name("rsvd26")
    1303        .dwattr $C$DW$64, DW_AT_TI_symbol_name("rsvd26")
    1304        .dwattr $C$DW$64, DW_AT_bit_offset(0x00)
PRU Assembler Unix v2.3.1 Sun Mar 31 20:55:30 2019

Tools Copyright (c) 2012-2017 Texas Instruments Incorporated
pru1_buslatches.asm                                                  PAGE   25

    1305        .dwattr $C$DW$64, DW_AT_bit_size(0x06)
    1306        .dwattr $C$DW$64, DW_AT_data_member_location[DW_OP_plus_uconst 0x0]
    1307        .dwattr $C$DW$64, DW_AT_accessibility(DW_ACCESS_public)
    1308        .dwattr $C$DW$64, DW_AT_decl_file("/home/joerg/retrocmp/dec/UniBone/91_3rd_party/pru-c-compile
    1309        .dwattr $C$DW$64, DW_AT_decl_line(0x61)
    1310        .dwattr $C$DW$64, DW_AT_decl_column(0x0d)
    1311
    1312        .dwattr $C$DW$T$22, DW_AT_decl_file("/home/joerg/retrocmp/dec/UniBone/91_3rd_party/pru-c-compi
    1313        .dwattr $C$DW$T$22, DW_AT_decl_line(0x57)
    1314        .dwattr $C$DW$T$22, DW_AT_decl_column(0x13)
    1315        .dwendtag $C$DW$T$22
    1316
    1317$C$DW$T$46      .dwtag  DW_TAG_volatile_type
    1318        .dwattr $C$DW$T$46, DW_AT_type(*$C$DW$T$22)
    1319
    1320
    1321$C$DW$T$23      .dwtag  DW_TAG_structure_type
    1322        .dwattr $C$DW$T$23, DW_AT_byte_size(0x04)
    1323$C$DW$65        .dwtag  DW_TAG_member
    1324        .dwattr $C$DW$65, DW_AT_type(*$C$DW$T$11)
    1325        .dwattr $C$DW$65, DW_AT_name("PRU0_CLK_STOP_REQ")
    1326        .dwattr $C$DW$65, DW_AT_TI_symbol_name("PRU0_CLK_STOP_REQ")
    1327        .dwattr $C$DW$65, DW_AT_bit_offset(0x1f)
    1328        .dwattr $C$DW$65, DW_AT_bit_size(0x01)
    1329        .dwattr $C$DW$65, DW_AT_data_member_location[DW_OP_plus_uconst 0x0]
    1330        .dwattr $C$DW$65, DW_AT_accessibility(DW_ACCESS_public)
    1331        .dwattr $C$DW$65, DW_AT_decl_file("/home/joerg/retrocmp/dec/UniBone/91_3rd_party/pru-c-compile
    1332        .dwattr $C$DW$65, DW_AT_decl_line(0x6b)
    1333        .dwattr $C$DW$65, DW_AT_decl_column(0x0d)
    1334
    1335$C$DW$66        .dwtag  DW_TAG_member
    1336        .dwattr $C$DW$66, DW_AT_type(*$C$DW$T$11)
    1337        .dwattr $C$DW$66, DW_AT_name("PRU0_CLK_STOP_ACK")
    1338        .dwattr $C$DW$66, DW_AT_TI_symbol_name("PRU0_CLK_STOP_ACK")
    1339        .dwattr $C$DW$66, DW_AT_bit_offset(0x1e)
    1340        .dwattr $C$DW$66, DW_AT_bit_size(0x01)
    1341        .dwattr $C$DW$66, DW_AT_data_member_location[DW_OP_plus_uconst 0x0]
    1342        .dwattr $C$DW$66, DW_AT_accessibility(DW_ACCESS_public)
    1343        .dwattr $C$DW$66, DW_AT_decl_file("/home/joerg/retrocmp/dec/UniBone/91_3rd_party/pru-c-compile
    1344        .dwattr $C$DW$66, DW_AT_decl_line(0x6c)
    1345        .dwattr $C$DW$66, DW_AT_decl_column(0x0d)
    1346
    1347$C$DW$67        .dwtag  DW_TAG_member
    1348        .dwattr $C$DW$67, DW_AT_type(*$C$DW$T$11)
    1349        .dwattr $C$DW$67, DW_AT_name("PRU0_CLK_EN")
    1350        .dwattr $C$DW$67, DW_AT_TI_symbol_name("PRU0_CLK_EN")
    1351        .dwattr $C$DW$67, DW_AT_bit_offset(0x1d)
    1352        .dwattr $C$DW$67, DW_AT_bit_size(0x01)
    1353        .dwattr $C$DW$67, DW_AT_data_member_location[DW_OP_plus_uconst 0x0]
    1354        .dwattr $C$DW$67, DW_AT_accessibility(DW_ACCESS_public)
    1355        .dwattr $C$DW$67, DW_AT_decl_file("/home/joerg/retrocmp/dec/UniBone/91_3rd_party/pru-c-compile
    1356        .dwattr $C$DW$67, DW_AT_decl_line(0x6d)
    1357        .dwattr $C$DW$67, DW_AT_decl_column(0x0d)
    1358
    1359$C$DW$68        .dwtag  DW_TAG_member
PRU Assembler Unix v2.3.1 Sun Mar 31 20:55:30 2019

Tools Copyright (c) 2012-2017 Texas Instruments Incorporated
pru1_buslatches.asm                                                  PAGE   26

    1360        .dwattr $C$DW$68, DW_AT_type(*$C$DW$T$11)
    1361        .dwattr $C$DW$68, DW_AT_name("PRU1_CLK_STOP_REQ")
    1362        .dwattr $C$DW$68, DW_AT_TI_symbol_name("PRU1_CLK_STOP_REQ")
    1363        .dwattr $C$DW$68, DW_AT_bit_offset(0x1c)
    1364        .dwattr $C$DW$68, DW_AT_bit_size(0x01)
    1365        .dwattr $C$DW$68, DW_AT_data_member_location[DW_OP_plus_uconst 0x0]
    1366        .dwattr $C$DW$68, DW_AT_accessibility(DW_ACCESS_public)
    1367        .dwattr $C$DW$68, DW_AT_decl_file("/home/joerg/retrocmp/dec/UniBone/91_3rd_party/pru-c-compile
    1368        .dwattr $C$DW$68, DW_AT_decl_line(0x6e)
    1369        .dwattr $C$DW$68, DW_AT_decl_column(0x0d)
    1370
    1371$C$DW$69        .dwtag  DW_TAG_member
    1372        .dwattr $C$DW$69, DW_AT_type(*$C$DW$T$11)
    1373        .dwattr $C$DW$69, DW_AT_name("PRU1_CLK_STOP_ACK")
    1374        .dwattr $C$DW$69, DW_AT_TI_symbol_name("PRU1_CLK_STOP_ACK")
    1375        .dwattr $C$DW$69, DW_AT_bit_offset(0x1b)
    1376        .dwattr $C$DW$69, DW_AT_bit_size(0x01)
    1377        .dwattr $C$DW$69, DW_AT_data_member_location[DW_OP_plus_uconst 0x0]
    1378        .dwattr $C$DW$69, DW_AT_accessibility(DW_ACCESS_public)
    1379        .dwattr $C$DW$69, DW_AT_decl_file("/home/joerg/retrocmp/dec/UniBone/91_3rd_party/pru-c-compile
    1380        .dwattr $C$DW$69, DW_AT_decl_line(0x6f)
    1381        .dwattr $C$DW$69, DW_AT_decl_column(0x0d)
    1382
    1383$C$DW$70        .dwtag  DW_TAG_member
    1384        .dwattr $C$DW$70, DW_AT_type(*$C$DW$T$11)
    1385        .dwattr $C$DW$70, DW_AT_name("PRU1_CLK_EN")
    1386        .dwattr $C$DW$70, DW_AT_TI_symbol_name("PRU1_CLK_EN")
    1387        .dwattr $C$DW$70, DW_AT_bit_offset(0x1a)
    1388        .dwattr $C$DW$70, DW_AT_bit_size(0x01)
    1389        .dwattr $C$DW$70, DW_AT_data_member_location[DW_OP_plus_uconst 0x0]
    1390        .dwattr $C$DW$70, DW_AT_accessibility(DW_ACCESS_public)
    1391        .dwattr $C$DW$70, DW_AT_decl_file("/home/joerg/retrocmp/dec/UniBone/91_3rd_party/pru-c-compile
    1392        .dwattr $C$DW$70, DW_AT_decl_line(0x70)
    1393        .dwattr $C$DW$70, DW_AT_decl_column(0x0d)
    1394
    1395$C$DW$71        .dwtag  DW_TAG_member
    1396        .dwattr $C$DW$71, DW_AT_type(*$C$DW$T$11)
    1397        .dwattr $C$DW$71, DW_AT_name("INTC_CLK_STOP_REQ")
    1398        .dwattr $C$DW$71, DW_AT_TI_symbol_name("INTC_CLK_STOP_REQ")
    1399        .dwattr $C$DW$71, DW_AT_bit_offset(0x19)
    1400        .dwattr $C$DW$71, DW_AT_bit_size(0x01)
    1401        .dwattr $C$DW$71, DW_AT_data_member_location[DW_OP_plus_uconst 0x0]
    1402        .dwattr $C$DW$71, DW_AT_accessibility(DW_ACCESS_public)
    1403        .dwattr $C$DW$71, DW_AT_decl_file("/home/joerg/retrocmp/dec/UniBone/91_3rd_party/pru-c-compile
    1404        .dwattr $C$DW$71, DW_AT_decl_line(0x71)
    1405        .dwattr $C$DW$71, DW_AT_decl_column(0x0d)
    1406
    1407$C$DW$72        .dwtag  DW_TAG_member
    1408        .dwattr $C$DW$72, DW_AT_type(*$C$DW$T$11)
    1409        .dwattr $C$DW$72, DW_AT_name("INTC_CLK_STOP_ACK")
    1410        .dwattr $C$DW$72, DW_AT_TI_symbol_name("INTC_CLK_STOP_ACK")
    1411        .dwattr $C$DW$72, DW_AT_bit_offset(0x18)
    1412        .dwattr $C$DW$72, DW_AT_bit_size(0x01)
    1413        .dwattr $C$DW$72, DW_AT_data_member_location[DW_OP_plus_uconst 0x0]
    1414        .dwattr $C$DW$72, DW_AT_accessibility(DW_ACCESS_public)
PRU Assembler Unix v2.3.1 Sun Mar 31 20:55:30 2019

Tools Copyright (c) 2012-2017 Texas Instruments Incorporated
pru1_buslatches.asm                                                  PAGE   27

    1415        .dwattr $C$DW$72, DW_AT_decl_file("/home/joerg/retrocmp/dec/UniBone/91_3rd_party/pru-c-compile
    1416        .dwattr $C$DW$72, DW_AT_decl_line(0x72)
    1417        .dwattr $C$DW$72, DW_AT_decl_column(0x0d)
    1418
    1419$C$DW$73        .dwtag  DW_TAG_member
    1420        .dwattr $C$DW$73, DW_AT_type(*$C$DW$T$11)
    1421        .dwattr $C$DW$73, DW_AT_name("INTC_CLK_EN")
    1422        .dwattr $C$DW$73, DW_AT_TI_symbol_name("INTC_CLK_EN")
    1423        .dwattr $C$DW$73, DW_AT_bit_offset(0x17)
    1424        .dwattr $C$DW$73, DW_AT_bit_size(0x01)
    1425        .dwattr $C$DW$73, DW_AT_data_member_location[DW_OP_plus_uconst 0x0]
    1426        .dwattr $C$DW$73, DW_AT_accessibility(DW_ACCESS_public)
    1427        .dwattr $C$DW$73, DW_AT_decl_file("/home/joerg/retrocmp/dec/UniBone/91_3rd_party/pru-c-compile
    1428        .dwattr $C$DW$73, DW_AT_decl_line(0x73)
    1429        .dwattr $C$DW$73, DW_AT_decl_column(0x0d)
    1430
    1431$C$DW$74        .dwtag  DW_TAG_member
    1432        .dwattr $C$DW$74, DW_AT_type(*$C$DW$T$11)
    1433        .dwattr $C$DW$74, DW_AT_name("UART_CLK_STOP_REQ")
    1434        .dwattr $C$DW$74, DW_AT_TI_symbol_name("UART_CLK_STOP_REQ")
    1435        .dwattr $C$DW$74, DW_AT_bit_offset(0x16)
    1436        .dwattr $C$DW$74, DW_AT_bit_size(0x01)
    1437        .dwattr $C$DW$74, DW_AT_data_member_location[DW_OP_plus_uconst 0x0]
    1438        .dwattr $C$DW$74, DW_AT_accessibility(DW_ACCESS_public)
    1439        .dwattr $C$DW$74, DW_AT_decl_file("/home/joerg/retrocmp/dec/UniBone/91_3rd_party/pru-c-compile
    1440        .dwattr $C$DW$74, DW_AT_decl_line(0x74)
    1441        .dwattr $C$DW$74, DW_AT_decl_column(0x0d)
    1442
    1443$C$DW$75        .dwtag  DW_TAG_member
    1444        .dwattr $C$DW$75, DW_AT_type(*$C$DW$T$11)
    1445        .dwattr $C$DW$75, DW_AT_name("UART_CLK_STOP_ACK")
    1446        .dwattr $C$DW$75, DW_AT_TI_symbol_name("UART_CLK_STOP_ACK")
    1447        .dwattr $C$DW$75, DW_AT_bit_offset(0x15)
    1448        .dwattr $C$DW$75, DW_AT_bit_size(0x01)
    1449        .dwattr $C$DW$75, DW_AT_data_member_location[DW_OP_plus_uconst 0x0]
    1450        .dwattr $C$DW$75, DW_AT_accessibility(DW_ACCESS_public)
    1451        .dwattr $C$DW$75, DW_AT_decl_file("/home/joerg/retrocmp/dec/UniBone/91_3rd_party/pru-c-compile
    1452        .dwattr $C$DW$75, DW_AT_decl_line(0x75)
    1453        .dwattr $C$DW$75, DW_AT_decl_column(0x0d)
    1454
    1455$C$DW$76        .dwtag  DW_TAG_member
    1456        .dwattr $C$DW$76, DW_AT_type(*$C$DW$T$11)
    1457        .dwattr $C$DW$76, DW_AT_name("UART_CLK_EN")
    1458        .dwattr $C$DW$76, DW_AT_TI_symbol_name("UART_CLK_EN")
    1459        .dwattr $C$DW$76, DW_AT_bit_offset(0x14)
    1460        .dwattr $C$DW$76, DW_AT_bit_size(0x01)
    1461        .dwattr $C$DW$76, DW_AT_data_member_location[DW_OP_plus_uconst 0x0]
    1462        .dwattr $C$DW$76, DW_AT_accessibility(DW_ACCESS_public)
    1463        .dwattr $C$DW$76, DW_AT_decl_file("/home/joerg/retrocmp/dec/UniBone/91_3rd_party/pru-c-compile
    1464        .dwattr $C$DW$76, DW_AT_decl_line(0x76)
    1465        .dwattr $C$DW$76, DW_AT_decl_column(0x0d)
    1466
    1467$C$DW$77        .dwtag  DW_TAG_member
    1468        .dwattr $C$DW$77, DW_AT_type(*$C$DW$T$11)
    1469        .dwattr $C$DW$77, DW_AT_name("ECAP_CLK_STOP_REQ")
PRU Assembler Unix v2.3.1 Sun Mar 31 20:55:30 2019

Tools Copyright (c) 2012-2017 Texas Instruments Incorporated
pru1_buslatches.asm                                                  PAGE   28

    1470        .dwattr $C$DW$77, DW_AT_TI_symbol_name("ECAP_CLK_STOP_REQ")
    1471        .dwattr $C$DW$77, DW_AT_bit_offset(0x13)
    1472        .dwattr $C$DW$77, DW_AT_bit_size(0x01)
    1473        .dwattr $C$DW$77, DW_AT_data_member_location[DW_OP_plus_uconst 0x0]
    1474        .dwattr $C$DW$77, DW_AT_accessibility(DW_ACCESS_public)
    1475        .dwattr $C$DW$77, DW_AT_decl_file("/home/joerg/retrocmp/dec/UniBone/91_3rd_party/pru-c-compile
    1476        .dwattr $C$DW$77, DW_AT_decl_line(0x77)
    1477        .dwattr $C$DW$77, DW_AT_decl_column(0x0d)
    1478
    1479$C$DW$78        .dwtag  DW_TAG_member
    1480        .dwattr $C$DW$78, DW_AT_type(*$C$DW$T$11)
    1481        .dwattr $C$DW$78, DW_AT_name("ECAP_CLK_STOP_ACK")
    1482        .dwattr $C$DW$78, DW_AT_TI_symbol_name("ECAP_CLK_STOP_ACK")
    1483        .dwattr $C$DW$78, DW_AT_bit_offset(0x12)
    1484        .dwattr $C$DW$78, DW_AT_bit_size(0x01)
    1485        .dwattr $C$DW$78, DW_AT_data_member_location[DW_OP_plus_uconst 0x0]
    1486        .dwattr $C$DW$78, DW_AT_accessibility(DW_ACCESS_public)
    1487        .dwattr $C$DW$78, DW_AT_decl_file("/home/joerg/retrocmp/dec/UniBone/91_3rd_party/pru-c-compile
    1488        .dwattr $C$DW$78, DW_AT_decl_line(0x78)
    1489        .dwattr $C$DW$78, DW_AT_decl_column(0x0d)
    1490
    1491$C$DW$79        .dwtag  DW_TAG_member
    1492        .dwattr $C$DW$79, DW_AT_type(*$C$DW$T$11)
    1493        .dwattr $C$DW$79, DW_AT_name("ECAP_CLK_EN")
    1494        .dwattr $C$DW$79, DW_AT_TI_symbol_name("ECAP_CLK_EN")
    1495        .dwattr $C$DW$79, DW_AT_bit_offset(0x11)
    1496        .dwattr $C$DW$79, DW_AT_bit_size(0x01)
    1497        .dwattr $C$DW$79, DW_AT_data_member_location[DW_OP_plus_uconst 0x0]
    1498        .dwattr $C$DW$79, DW_AT_accessibility(DW_ACCESS_public)
    1499        .dwattr $C$DW$79, DW_AT_decl_file("/home/joerg/retrocmp/dec/UniBone/91_3rd_party/pru-c-compile
    1500        .dwattr $C$DW$79, DW_AT_decl_line(0x79)
    1501        .dwattr $C$DW$79, DW_AT_decl_column(0x0d)
    1502
    1503$C$DW$80        .dwtag  DW_TAG_member
    1504        .dwattr $C$DW$80, DW_AT_type(*$C$DW$T$11)
    1505        .dwattr $C$DW$80, DW_AT_name("IEP_CLK_STOP_REQ")
    1506        .dwattr $C$DW$80, DW_AT_TI_symbol_name("IEP_CLK_STOP_REQ")
    1507        .dwattr $C$DW$80, DW_AT_bit_offset(0x10)
    1508        .dwattr $C$DW$80, DW_AT_bit_size(0x01)
    1509        .dwattr $C$DW$80, DW_AT_data_member_location[DW_OP_plus_uconst 0x0]
    1510        .dwattr $C$DW$80, DW_AT_accessibility(DW_ACCESS_public)
    1511        .dwattr $C$DW$80, DW_AT_decl_file("/home/joerg/retrocmp/dec/UniBone/91_3rd_party/pru-c-compile
    1512        .dwattr $C$DW$80, DW_AT_decl_line(0x7a)
    1513        .dwattr $C$DW$80, DW_AT_decl_column(0x0d)
    1514
    1515$C$DW$81        .dwtag  DW_TAG_member
    1516        .dwattr $C$DW$81, DW_AT_type(*$C$DW$T$11)
    1517        .dwattr $C$DW$81, DW_AT_name("IEP_CLK_STOP_ACK")
    1518        .dwattr $C$DW$81, DW_AT_TI_symbol_name("IEP_CLK_STOP_ACK")
    1519        .dwattr $C$DW$81, DW_AT_bit_offset(0x0f)
    1520        .dwattr $C$DW$81, DW_AT_bit_size(0x01)
    1521        .dwattr $C$DW$81, DW_AT_data_member_location[DW_OP_plus_uconst 0x0]
    1522        .dwattr $C$DW$81, DW_AT_accessibility(DW_ACCESS_public)
    1523        .dwattr $C$DW$81, DW_AT_decl_file("/home/joerg/retrocmp/dec/UniBone/91_3rd_party/pru-c-compile
    1524        .dwattr $C$DW$81, DW_AT_decl_line(0x7b)
PRU Assembler Unix v2.3.1 Sun Mar 31 20:55:30 2019

Tools Copyright (c) 2012-2017 Texas Instruments Incorporated
pru1_buslatches.asm                                                  PAGE   29

    1525        .dwattr $C$DW$81, DW_AT_decl_column(0x0d)
    1526
    1527$C$DW$82        .dwtag  DW_TAG_member
    1528        .dwattr $C$DW$82, DW_AT_type(*$C$DW$T$11)
    1529        .dwattr $C$DW$82, DW_AT_name("IEP_CLK_EN")
    1530        .dwattr $C$DW$82, DW_AT_TI_symbol_name("IEP_CLK_EN")
    1531        .dwattr $C$DW$82, DW_AT_bit_offset(0x0e)
    1532        .dwattr $C$DW$82, DW_AT_bit_size(0x01)
    1533        .dwattr $C$DW$82, DW_AT_data_member_location[DW_OP_plus_uconst 0x0]
    1534        .dwattr $C$DW$82, DW_AT_accessibility(DW_ACCESS_public)
    1535        .dwattr $C$DW$82, DW_AT_decl_file("/home/joerg/retrocmp/dec/UniBone/91_3rd_party/pru-c-compile
    1536        .dwattr $C$DW$82, DW_AT_decl_line(0x7c)
    1537        .dwattr $C$DW$82, DW_AT_decl_column(0x0d)
    1538
    1539$C$DW$83        .dwtag  DW_TAG_member
    1540        .dwattr $C$DW$83, DW_AT_type(*$C$DW$T$11)
    1541        .dwattr $C$DW$83, DW_AT_name("rsvd18")
    1542        .dwattr $C$DW$83, DW_AT_TI_symbol_name("rsvd18")
    1543        .dwattr $C$DW$83, DW_AT_bit_offset(0x00)
    1544        .dwattr $C$DW$83, DW_AT_bit_size(0x0e)
    1545        .dwattr $C$DW$83, DW_AT_data_member_location[DW_OP_plus_uconst 0x0]
    1546        .dwattr $C$DW$83, DW_AT_accessibility(DW_ACCESS_public)
    1547        .dwattr $C$DW$83, DW_AT_decl_file("/home/joerg/retrocmp/dec/UniBone/91_3rd_party/pru-c-compile
    1548        .dwattr $C$DW$83, DW_AT_decl_line(0x7d)
    1549        .dwattr $C$DW$83, DW_AT_decl_column(0x0d)
    1550
    1551        .dwattr $C$DW$T$23, DW_AT_decl_file("/home/joerg/retrocmp/dec/UniBone/91_3rd_party/pru-c-compi
    1552        .dwattr $C$DW$T$23, DW_AT_decl_line(0x6a)
    1553        .dwattr $C$DW$T$23, DW_AT_decl_column(0x13)
    1554        .dwendtag $C$DW$T$23
    1555
    1556$C$DW$T$48      .dwtag  DW_TAG_volatile_type
    1557        .dwattr $C$DW$T$48, DW_AT_type(*$C$DW$T$23)
    1558
    1559
    1560$C$DW$T$24      .dwtag  DW_TAG_structure_type
    1561        .dwattr $C$DW$T$24, DW_AT_byte_size(0x04)
    1562$C$DW$84        .dwtag  DW_TAG_member
    1563        .dwattr $C$DW$84, DW_AT_type(*$C$DW$T$11)
    1564        .dwattr $C$DW$84, DW_AT_name("PRU0_IMEM_PE_RAW")
    1565        .dwattr $C$DW$84, DW_AT_TI_symbol_name("PRU0_IMEM_PE_RAW")
    1566        .dwattr $C$DW$84, DW_AT_bit_offset(0x1c)
    1567        .dwattr $C$DW$84, DW_AT_bit_size(0x04)
    1568        .dwattr $C$DW$84, DW_AT_data_member_location[DW_OP_plus_uconst 0x0]
    1569        .dwattr $C$DW$84, DW_AT_accessibility(DW_ACCESS_public)
    1570        .dwattr $C$DW$84, DW_AT_decl_file("/home/joerg/retrocmp/dec/UniBone/91_3rd_party/pru-c-compile
    1571        .dwattr $C$DW$84, DW_AT_decl_line(0x87)
    1572        .dwattr $C$DW$84, DW_AT_decl_column(0x0d)
    1573
    1574$C$DW$85        .dwtag  DW_TAG_member
    1575        .dwattr $C$DW$85, DW_AT_type(*$C$DW$T$11)
    1576        .dwattr $C$DW$85, DW_AT_name("PRU0_DMEM_PE_RAW")
    1577        .dwattr $C$DW$85, DW_AT_TI_symbol_name("PRU0_DMEM_PE_RAW")
    1578        .dwattr $C$DW$85, DW_AT_bit_offset(0x18)
    1579        .dwattr $C$DW$85, DW_AT_bit_size(0x04)
PRU Assembler Unix v2.3.1 Sun Mar 31 20:55:30 2019

Tools Copyright (c) 2012-2017 Texas Instruments Incorporated
pru1_buslatches.asm                                                  PAGE   30

    1580        .dwattr $C$DW$85, DW_AT_data_member_location[DW_OP_plus_uconst 0x0]
    1581        .dwattr $C$DW$85, DW_AT_accessibility(DW_ACCESS_public)
    1582        .dwattr $C$DW$85, DW_AT_decl_file("/home/joerg/retrocmp/dec/UniBone/91_3rd_party/pru-c-compile
    1583        .dwattr $C$DW$85, DW_AT_decl_line(0x88)
    1584        .dwattr $C$DW$85, DW_AT_decl_column(0x0d)
    1585
    1586$C$DW$86        .dwtag  DW_TAG_member
    1587        .dwattr $C$DW$86, DW_AT_type(*$C$DW$T$11)
    1588        .dwattr $C$DW$86, DW_AT_name("PRU1_IMEM_PE_RAW")
    1589        .dwattr $C$DW$86, DW_AT_TI_symbol_name("PRU1_IMEM_PE_RAW")
    1590        .dwattr $C$DW$86, DW_AT_bit_offset(0x14)
    1591        .dwattr $C$DW$86, DW_AT_bit_size(0x04)
    1592        .dwattr $C$DW$86, DW_AT_data_member_location[DW_OP_plus_uconst 0x0]
    1593        .dwattr $C$DW$86, DW_AT_accessibility(DW_ACCESS_public)
    1594        .dwattr $C$DW$86, DW_AT_decl_file("/home/joerg/retrocmp/dec/UniBone/91_3rd_party/pru-c-compile
    1595        .dwattr $C$DW$86, DW_AT_decl_line(0x89)
    1596        .dwattr $C$DW$86, DW_AT_decl_column(0x0d)
    1597
    1598$C$DW$87        .dwtag  DW_TAG_member
    1599        .dwattr $C$DW$87, DW_AT_type(*$C$DW$T$11)
    1600        .dwattr $C$DW$87, DW_AT_name("PRU1_DMEM_PE_RAW")
    1601        .dwattr $C$DW$87, DW_AT_TI_symbol_name("PRU1_DMEM_PE_RAW")
    1602        .dwattr $C$DW$87, DW_AT_bit_offset(0x10)
    1603        .dwattr $C$DW$87, DW_AT_bit_size(0x04)
    1604        .dwattr $C$DW$87, DW_AT_data_member_location[DW_OP_plus_uconst 0x0]
    1605        .dwattr $C$DW$87, DW_AT_accessibility(DW_ACCESS_public)
    1606        .dwattr $C$DW$87, DW_AT_decl_file("/home/joerg/retrocmp/dec/UniBone/91_3rd_party/pru-c-compile
    1607        .dwattr $C$DW$87, DW_AT_decl_line(0x8a)
    1608        .dwattr $C$DW$87, DW_AT_decl_column(0x0d)
    1609
    1610$C$DW$88        .dwtag  DW_TAG_member
    1611        .dwattr $C$DW$88, DW_AT_type(*$C$DW$T$11)
    1612        .dwattr $C$DW$88, DW_AT_name("RAM_PE_RAW")
    1613        .dwattr $C$DW$88, DW_AT_TI_symbol_name("RAM_PE_RAW")
    1614        .dwattr $C$DW$88, DW_AT_bit_offset(0x0c)
    1615        .dwattr $C$DW$88, DW_AT_bit_size(0x04)
    1616        .dwattr $C$DW$88, DW_AT_data_member_location[DW_OP_plus_uconst 0x0]
    1617        .dwattr $C$DW$88, DW_AT_accessibility(DW_ACCESS_public)
    1618        .dwattr $C$DW$88, DW_AT_decl_file("/home/joerg/retrocmp/dec/UniBone/91_3rd_party/pru-c-compile
    1619        .dwattr $C$DW$88, DW_AT_decl_line(0x8b)
    1620        .dwattr $C$DW$88, DW_AT_decl_column(0x0d)
    1621
    1622$C$DW$89        .dwtag  DW_TAG_member
    1623        .dwattr $C$DW$89, DW_AT_type(*$C$DW$T$11)
    1624        .dwattr $C$DW$89, DW_AT_name("rsvd20")
    1625        .dwattr $C$DW$89, DW_AT_TI_symbol_name("rsvd20")
    1626        .dwattr $C$DW$89, DW_AT_bit_offset(0x00)
    1627        .dwattr $C$DW$89, DW_AT_bit_size(0x0c)
    1628        .dwattr $C$DW$89, DW_AT_data_member_location[DW_OP_plus_uconst 0x0]
    1629        .dwattr $C$DW$89, DW_AT_accessibility(DW_ACCESS_public)
    1630        .dwattr $C$DW$89, DW_AT_decl_file("/home/joerg/retrocmp/dec/UniBone/91_3rd_party/pru-c-compile
    1631        .dwattr $C$DW$89, DW_AT_decl_line(0x8c)
    1632        .dwattr $C$DW$89, DW_AT_decl_column(0x0d)
    1633
    1634        .dwattr $C$DW$T$24, DW_AT_decl_file("/home/joerg/retrocmp/dec/UniBone/91_3rd_party/pru-c-compi
PRU Assembler Unix v2.3.1 Sun Mar 31 20:55:30 2019

Tools Copyright (c) 2012-2017 Texas Instruments Incorporated
pru1_buslatches.asm                                                  PAGE   31

    1635        .dwattr $C$DW$T$24, DW_AT_decl_line(0x86)
    1636        .dwattr $C$DW$T$24, DW_AT_decl_column(0x14)
    1637        .dwendtag $C$DW$T$24
    1638
    1639$C$DW$T$50      .dwtag  DW_TAG_volatile_type
    1640        .dwattr $C$DW$T$50, DW_AT_type(*$C$DW$T$24)
    1641
    1642
    1643$C$DW$T$25      .dwtag  DW_TAG_structure_type
    1644        .dwattr $C$DW$T$25, DW_AT_byte_size(0x04)
    1645$C$DW$90        .dwtag  DW_TAG_member
    1646        .dwattr $C$DW$90, DW_AT_type(*$C$DW$T$11)
    1647        .dwattr $C$DW$90, DW_AT_name("PRU0_IMEM_PE")
    1648        .dwattr $C$DW$90, DW_AT_TI_symbol_name("PRU0_IMEM_PE")
    1649        .dwattr $C$DW$90, DW_AT_bit_offset(0x1c)
    1650        .dwattr $C$DW$90, DW_AT_bit_size(0x04)
    1651        .dwattr $C$DW$90, DW_AT_data_member_location[DW_OP_plus_uconst 0x0]
    1652        .dwattr $C$DW$90, DW_AT_accessibility(DW_ACCESS_public)
    1653        .dwattr $C$DW$90, DW_AT_decl_file("/home/joerg/retrocmp/dec/UniBone/91_3rd_party/pru-c-compile
    1654        .dwattr $C$DW$90, DW_AT_decl_line(0x96)
    1655        .dwattr $C$DW$90, DW_AT_decl_column(0x0d)
    1656
    1657$C$DW$91        .dwtag  DW_TAG_member
    1658        .dwattr $C$DW$91, DW_AT_type(*$C$DW$T$11)
    1659        .dwattr $C$DW$91, DW_AT_name("PRU0_DMEM_PE")
    1660        .dwattr $C$DW$91, DW_AT_TI_symbol_name("PRU0_DMEM_PE")
    1661        .dwattr $C$DW$91, DW_AT_bit_offset(0x18)
    1662        .dwattr $C$DW$91, DW_AT_bit_size(0x04)
    1663        .dwattr $C$DW$91, DW_AT_data_member_location[DW_OP_plus_uconst 0x0]
    1664        .dwattr $C$DW$91, DW_AT_accessibility(DW_ACCESS_public)
    1665        .dwattr $C$DW$91, DW_AT_decl_file("/home/joerg/retrocmp/dec/UniBone/91_3rd_party/pru-c-compile
    1666        .dwattr $C$DW$91, DW_AT_decl_line(0x97)
    1667        .dwattr $C$DW$91, DW_AT_decl_column(0x0d)
    1668
    1669$C$DW$92        .dwtag  DW_TAG_member
    1670        .dwattr $C$DW$92, DW_AT_type(*$C$DW$T$11)
    1671        .dwattr $C$DW$92, DW_AT_name("PRU1_IMEM_PE")
    1672        .dwattr $C$DW$92, DW_AT_TI_symbol_name("PRU1_IMEM_PE")
    1673        .dwattr $C$DW$92, DW_AT_bit_offset(0x14)
    1674        .dwattr $C$DW$92, DW_AT_bit_size(0x04)
    1675        .dwattr $C$DW$92, DW_AT_data_member_location[DW_OP_plus_uconst 0x0]
    1676        .dwattr $C$DW$92, DW_AT_accessibility(DW_ACCESS_public)
    1677        .dwattr $C$DW$92, DW_AT_decl_file("/home/joerg/retrocmp/dec/UniBone/91_3rd_party/pru-c-compile
    1678        .dwattr $C$DW$92, DW_AT_decl_line(0x98)
    1679        .dwattr $C$DW$92, DW_AT_decl_column(0x0d)
    1680
    1681$C$DW$93        .dwtag  DW_TAG_member
    1682        .dwattr $C$DW$93, DW_AT_type(*$C$DW$T$11)
    1683        .dwattr $C$DW$93, DW_AT_name("PRU1_DMEM_PE")
    1684        .dwattr $C$DW$93, DW_AT_TI_symbol_name("PRU1_DMEM_PE")
    1685        .dwattr $C$DW$93, DW_AT_bit_offset(0x10)
    1686        .dwattr $C$DW$93, DW_AT_bit_size(0x04)
    1687        .dwattr $C$DW$93, DW_AT_data_member_location[DW_OP_plus_uconst 0x0]
    1688        .dwattr $C$DW$93, DW_AT_accessibility(DW_ACCESS_public)
    1689        .dwattr $C$DW$93, DW_AT_decl_file("/home/joerg/retrocmp/dec/UniBone/91_3rd_party/pru-c-compile
PRU Assembler Unix v2.3.1 Sun Mar 31 20:55:30 2019

Tools Copyright (c) 2012-2017 Texas Instruments Incorporated
pru1_buslatches.asm                                                  PAGE   32

    1690        .dwattr $C$DW$93, DW_AT_decl_line(0x99)
    1691        .dwattr $C$DW$93, DW_AT_decl_column(0x0d)
    1692
    1693$C$DW$94        .dwtag  DW_TAG_member
    1694        .dwattr $C$DW$94, DW_AT_type(*$C$DW$T$11)
    1695        .dwattr $C$DW$94, DW_AT_name("RAM_PE")
    1696        .dwattr $C$DW$94, DW_AT_TI_symbol_name("RAM_PE")
    1697        .dwattr $C$DW$94, DW_AT_bit_offset(0x0c)
    1698        .dwattr $C$DW$94, DW_AT_bit_size(0x04)
    1699        .dwattr $C$DW$94, DW_AT_data_member_location[DW_OP_plus_uconst 0x0]
    1700        .dwattr $C$DW$94, DW_AT_accessibility(DW_ACCESS_public)
    1701        .dwattr $C$DW$94, DW_AT_decl_file("/home/joerg/retrocmp/dec/UniBone/91_3rd_party/pru-c-compile
    1702        .dwattr $C$DW$94, DW_AT_decl_line(0x9a)
    1703        .dwattr $C$DW$94, DW_AT_decl_column(0x0d)
    1704
    1705$C$DW$95        .dwtag  DW_TAG_member
    1706        .dwattr $C$DW$95, DW_AT_type(*$C$DW$T$11)
    1707        .dwattr $C$DW$95, DW_AT_name("rsvd20")
    1708        .dwattr $C$DW$95, DW_AT_TI_symbol_name("rsvd20")
    1709        .dwattr $C$DW$95, DW_AT_bit_offset(0x00)
    1710        .dwattr $C$DW$95, DW_AT_bit_size(0x0c)
    1711        .dwattr $C$DW$95, DW_AT_data_member_location[DW_OP_plus_uconst 0x0]
    1712        .dwattr $C$DW$95, DW_AT_accessibility(DW_ACCESS_public)
    1713        .dwattr $C$DW$95, DW_AT_decl_file("/home/joerg/retrocmp/dec/UniBone/91_3rd_party/pru-c-compile
    1714        .dwattr $C$DW$95, DW_AT_decl_line(0x9b)
    1715        .dwattr $C$DW$95, DW_AT_decl_column(0x0d)
    1716
    1717        .dwattr $C$DW$T$25, DW_AT_decl_file("/home/joerg/retrocmp/dec/UniBone/91_3rd_party/pru-c-compi
    1718        .dwattr $C$DW$T$25, DW_AT_decl_line(0x95)
    1719        .dwattr $C$DW$T$25, DW_AT_decl_column(0x14)
    1720        .dwendtag $C$DW$T$25
    1721
    1722$C$DW$T$52      .dwtag  DW_TAG_volatile_type
    1723        .dwattr $C$DW$T$52, DW_AT_type(*$C$DW$T$25)
    1724
    1725
    1726$C$DW$T$26      .dwtag  DW_TAG_structure_type
    1727        .dwattr $C$DW$T$26, DW_AT_byte_size(0x04)
    1728$C$DW$96        .dwtag  DW_TAG_member
    1729        .dwattr $C$DW$96, DW_AT_type(*$C$DW$T$11)
    1730        .dwattr $C$DW$96, DW_AT_name("PRU0_IMEM_PE_SET")
    1731        .dwattr $C$DW$96, DW_AT_TI_symbol_name("PRU0_IMEM_PE_SET")
    1732        .dwattr $C$DW$96, DW_AT_bit_offset(0x1c)
    1733        .dwattr $C$DW$96, DW_AT_bit_size(0x04)
    1734        .dwattr $C$DW$96, DW_AT_data_member_location[DW_OP_plus_uconst 0x0]
    1735        .dwattr $C$DW$96, DW_AT_accessibility(DW_ACCESS_public)
    1736        .dwattr $C$DW$96, DW_AT_decl_file("/home/joerg/retrocmp/dec/UniBone/91_3rd_party/pru-c-compile
    1737        .dwattr $C$DW$96, DW_AT_decl_line(0xa4)
    1738        .dwattr $C$DW$96, DW_AT_decl_column(0x0d)
    1739
    1740$C$DW$97        .dwtag  DW_TAG_member
    1741        .dwattr $C$DW$97, DW_AT_type(*$C$DW$T$11)
    1742        .dwattr $C$DW$97, DW_AT_name("PRU0_DMEM_PE_SET")
    1743        .dwattr $C$DW$97, DW_AT_TI_symbol_name("PRU0_DMEM_PE_SET")
    1744        .dwattr $C$DW$97, DW_AT_bit_offset(0x18)
PRU Assembler Unix v2.3.1 Sun Mar 31 20:55:30 2019

Tools Copyright (c) 2012-2017 Texas Instruments Incorporated
pru1_buslatches.asm                                                  PAGE   33

    1745        .dwattr $C$DW$97, DW_AT_bit_size(0x04)
    1746        .dwattr $C$DW$97, DW_AT_data_member_location[DW_OP_plus_uconst 0x0]
    1747        .dwattr $C$DW$97, DW_AT_accessibility(DW_ACCESS_public)
    1748        .dwattr $C$DW$97, DW_AT_decl_file("/home/joerg/retrocmp/dec/UniBone/91_3rd_party/pru-c-compile
    1749        .dwattr $C$DW$97, DW_AT_decl_line(0xa5)
    1750        .dwattr $C$DW$97, DW_AT_decl_column(0x0d)
    1751
    1752$C$DW$98        .dwtag  DW_TAG_member
    1753        .dwattr $C$DW$98, DW_AT_type(*$C$DW$T$11)
    1754        .dwattr $C$DW$98, DW_AT_name("PRU1_IMEM_PE_SET")
    1755        .dwattr $C$DW$98, DW_AT_TI_symbol_name("PRU1_IMEM_PE_SET")
    1756        .dwattr $C$DW$98, DW_AT_bit_offset(0x14)
    1757        .dwattr $C$DW$98, DW_AT_bit_size(0x04)
    1758        .dwattr $C$DW$98, DW_AT_data_member_location[DW_OP_plus_uconst 0x0]
    1759        .dwattr $C$DW$98, DW_AT_accessibility(DW_ACCESS_public)
    1760        .dwattr $C$DW$98, DW_AT_decl_file("/home/joerg/retrocmp/dec/UniBone/91_3rd_party/pru-c-compile
    1761        .dwattr $C$DW$98, DW_AT_decl_line(0xa6)
    1762        .dwattr $C$DW$98, DW_AT_decl_column(0x0d)
    1763
    1764$C$DW$99        .dwtag  DW_TAG_member
    1765        .dwattr $C$DW$99, DW_AT_type(*$C$DW$T$11)
    1766        .dwattr $C$DW$99, DW_AT_name("PRU1_DMEM_PE_SET")
    1767        .dwattr $C$DW$99, DW_AT_TI_symbol_name("PRU1_DMEM_PE_SET")
    1768        .dwattr $C$DW$99, DW_AT_bit_offset(0x10)
    1769        .dwattr $C$DW$99, DW_AT_bit_size(0x04)
    1770        .dwattr $C$DW$99, DW_AT_data_member_location[DW_OP_plus_uconst 0x0]
    1771        .dwattr $C$DW$99, DW_AT_accessibility(DW_ACCESS_public)
    1772        .dwattr $C$DW$99, DW_AT_decl_file("/home/joerg/retrocmp/dec/UniBone/91_3rd_party/pru-c-compile
    1773        .dwattr $C$DW$99, DW_AT_decl_line(0xa7)
    1774        .dwattr $C$DW$99, DW_AT_decl_column(0x0d)
    1775
    1776$C$DW$100       .dwtag  DW_TAG_member
    1777        .dwattr $C$DW$100, DW_AT_type(*$C$DW$T$11)
    1778        .dwattr $C$DW$100, DW_AT_name("RAM_PE_SET")
    1779        .dwattr $C$DW$100, DW_AT_TI_symbol_name("RAM_PE_SET")
    1780        .dwattr $C$DW$100, DW_AT_bit_offset(0x0c)
    1781        .dwattr $C$DW$100, DW_AT_bit_size(0x04)
    1782        .dwattr $C$DW$100, DW_AT_data_member_location[DW_OP_plus_uconst 0x0]
    1783        .dwattr $C$DW$100, DW_AT_accessibility(DW_ACCESS_public)
    1784        .dwattr $C$DW$100, DW_AT_decl_file("/home/joerg/retrocmp/dec/UniBone/91_3rd_party/pru-c-compil
    1785        .dwattr $C$DW$100, DW_AT_decl_line(0xa8)
    1786        .dwattr $C$DW$100, DW_AT_decl_column(0x0d)
    1787
    1788$C$DW$101       .dwtag  DW_TAG_member
    1789        .dwattr $C$DW$101, DW_AT_type(*$C$DW$T$11)
    1790        .dwattr $C$DW$101, DW_AT_name("rsvd20")
    1791        .dwattr $C$DW$101, DW_AT_TI_symbol_name("rsvd20")
    1792        .dwattr $C$DW$101, DW_AT_bit_offset(0x00)
    1793        .dwattr $C$DW$101, DW_AT_bit_size(0x0c)
    1794        .dwattr $C$DW$101, DW_AT_data_member_location[DW_OP_plus_uconst 0x0]
    1795        .dwattr $C$DW$101, DW_AT_accessibility(DW_ACCESS_public)
    1796        .dwattr $C$DW$101, DW_AT_decl_file("/home/joerg/retrocmp/dec/UniBone/91_3rd_party/pru-c-compil
    1797        .dwattr $C$DW$101, DW_AT_decl_line(0xa9)
    1798        .dwattr $C$DW$101, DW_AT_decl_column(0x0d)
    1799
PRU Assembler Unix v2.3.1 Sun Mar 31 20:55:30 2019

Tools Copyright (c) 2012-2017 Texas Instruments Incorporated
pru1_buslatches.asm                                                  PAGE   34

    1800        .dwattr $C$DW$T$26, DW_AT_decl_file("/home/joerg/retrocmp/dec/UniBone/91_3rd_party/pru-c-compi
    1801        .dwattr $C$DW$T$26, DW_AT_decl_line(0xa3)
    1802        .dwattr $C$DW$T$26, DW_AT_decl_column(0x13)
    1803        .dwendtag $C$DW$T$26
    1804
    1805$C$DW$T$54      .dwtag  DW_TAG_volatile_type
    1806        .dwattr $C$DW$T$54, DW_AT_type(*$C$DW$T$26)
    1807
    1808
    1809$C$DW$T$27      .dwtag  DW_TAG_structure_type
    1810        .dwattr $C$DW$T$27, DW_AT_byte_size(0x04)
    1811$C$DW$102       .dwtag  DW_TAG_member
    1812        .dwattr $C$DW$102, DW_AT_type(*$C$DW$T$11)
    1813        .dwattr $C$DW$102, DW_AT_name("PRU0_IMEM_PE_CLR")
    1814        .dwattr $C$DW$102, DW_AT_TI_symbol_name("PRU0_IMEM_PE_CLR")
    1815        .dwattr $C$DW$102, DW_AT_bit_offset(0x1c)
    1816        .dwattr $C$DW$102, DW_AT_bit_size(0x04)
    1817        .dwattr $C$DW$102, DW_AT_data_member_location[DW_OP_plus_uconst 0x0]
    1818        .dwattr $C$DW$102, DW_AT_accessibility(DW_ACCESS_public)
    1819        .dwattr $C$DW$102, DW_AT_decl_file("/home/joerg/retrocmp/dec/UniBone/91_3rd_party/pru-c-compil
    1820        .dwattr $C$DW$102, DW_AT_decl_line(0xb3)
    1821        .dwattr $C$DW$102, DW_AT_decl_column(0x0d)
    1822
    1823$C$DW$103       .dwtag  DW_TAG_member
    1824        .dwattr $C$DW$103, DW_AT_type(*$C$DW$T$11)
    1825        .dwattr $C$DW$103, DW_AT_name("PRU0_DMEM_PE_CLR")
    1826        .dwattr $C$DW$103, DW_AT_TI_symbol_name("PRU0_DMEM_PE_CLR")
    1827        .dwattr $C$DW$103, DW_AT_bit_offset(0x18)
    1828        .dwattr $C$DW$103, DW_AT_bit_size(0x04)
    1829        .dwattr $C$DW$103, DW_AT_data_member_location[DW_OP_plus_uconst 0x0]
    1830        .dwattr $C$DW$103, DW_AT_accessibility(DW_ACCESS_public)
    1831        .dwattr $C$DW$103, DW_AT_decl_file("/home/joerg/retrocmp/dec/UniBone/91_3rd_party/pru-c-compil
    1832        .dwattr $C$DW$103, DW_AT_decl_line(0xb4)
    1833        .dwattr $C$DW$103, DW_AT_decl_column(0x0d)
    1834
    1835$C$DW$104       .dwtag  DW_TAG_member
    1836        .dwattr $C$DW$104, DW_AT_type(*$C$DW$T$11)
    1837        .dwattr $C$DW$104, DW_AT_name("PRU1_IMEM_PE_CLR")
    1838        .dwattr $C$DW$104, DW_AT_TI_symbol_name("PRU1_IMEM_PE_CLR")
    1839        .dwattr $C$DW$104, DW_AT_bit_offset(0x14)
    1840        .dwattr $C$DW$104, DW_AT_bit_size(0x04)
    1841        .dwattr $C$DW$104, DW_AT_data_member_location[DW_OP_plus_uconst 0x0]
    1842        .dwattr $C$DW$104, DW_AT_accessibility(DW_ACCESS_public)
    1843        .dwattr $C$DW$104, DW_AT_decl_file("/home/joerg/retrocmp/dec/UniBone/91_3rd_party/pru-c-compil
    1844        .dwattr $C$DW$104, DW_AT_decl_line(0xb5)
    1845        .dwattr $C$DW$104, DW_AT_decl_column(0x0d)
    1846
    1847$C$DW$105       .dwtag  DW_TAG_member
    1848        .dwattr $C$DW$105, DW_AT_type(*$C$DW$T$11)
    1849        .dwattr $C$DW$105, DW_AT_name("PRU1_DMEM_PE_CLR")
    1850        .dwattr $C$DW$105, DW_AT_TI_symbol_name("PRU1_DMEM_PE_CLR")
    1851        .dwattr $C$DW$105, DW_AT_bit_offset(0x10)
    1852        .dwattr $C$DW$105, DW_AT_bit_size(0x04)
    1853        .dwattr $C$DW$105, DW_AT_data_member_location[DW_OP_plus_uconst 0x0]
    1854        .dwattr $C$DW$105, DW_AT_accessibility(DW_ACCESS_public)
PRU Assembler Unix v2.3.1 Sun Mar 31 20:55:30 2019

Tools Copyright (c) 2012-2017 Texas Instruments Incorporated
pru1_buslatches.asm                                                  PAGE   35

    1855        .dwattr $C$DW$105, DW_AT_decl_file("/home/joerg/retrocmp/dec/UniBone/91_3rd_party/pru-c-compil
    1856        .dwattr $C$DW$105, DW_AT_decl_line(0xb6)
    1857        .dwattr $C$DW$105, DW_AT_decl_column(0x0d)
    1858
    1859$C$DW$106       .dwtag  DW_TAG_member
    1860        .dwattr $C$DW$106, DW_AT_type(*$C$DW$T$11)
    1861        .dwattr $C$DW$106, DW_AT_name("rsvd16")
    1862        .dwattr $C$DW$106, DW_AT_TI_symbol_name("rsvd16")
    1863        .dwattr $C$DW$106, DW_AT_bit_offset(0x00)
    1864        .dwattr $C$DW$106, DW_AT_bit_size(0x10)
    1865        .dwattr $C$DW$106, DW_AT_data_member_location[DW_OP_plus_uconst 0x0]
    1866        .dwattr $C$DW$106, DW_AT_accessibility(DW_ACCESS_public)
    1867        .dwattr $C$DW$106, DW_AT_decl_file("/home/joerg/retrocmp/dec/UniBone/91_3rd_party/pru-c-compil
    1868        .dwattr $C$DW$106, DW_AT_decl_line(0xb7)
    1869        .dwattr $C$DW$106, DW_AT_decl_column(0x0d)
    1870
    1871        .dwattr $C$DW$T$27, DW_AT_decl_file("/home/joerg/retrocmp/dec/UniBone/91_3rd_party/pru-c-compi
    1872        .dwattr $C$DW$T$27, DW_AT_decl_line(0xb2)
    1873        .dwattr $C$DW$T$27, DW_AT_decl_column(0x13)
    1874        .dwendtag $C$DW$T$27
    1875
    1876$C$DW$T$56      .dwtag  DW_TAG_volatile_type
    1877        .dwattr $C$DW$T$56, DW_AT_type(*$C$DW$T$27)
    1878
    1879
    1880$C$DW$T$28      .dwtag  DW_TAG_structure_type
    1881        .dwattr $C$DW$T$28, DW_AT_byte_size(0x04)
    1882$C$DW$107       .dwtag  DW_TAG_member
    1883        .dwattr $C$DW$107, DW_AT_type(*$C$DW$T$11)
    1884        .dwattr $C$DW$107, DW_AT_name("PMAO_PRU0")
    1885        .dwattr $C$DW$107, DW_AT_TI_symbol_name("PMAO_PRU0")
    1886        .dwattr $C$DW$107, DW_AT_bit_offset(0x1f)
    1887        .dwattr $C$DW$107, DW_AT_bit_size(0x01)
    1888        .dwattr $C$DW$107, DW_AT_data_member_location[DW_OP_plus_uconst 0x0]
    1889        .dwattr $C$DW$107, DW_AT_accessibility(DW_ACCESS_public)
    1890        .dwattr $C$DW$107, DW_AT_decl_file("/home/joerg/retrocmp/dec/UniBone/91_3rd_party/pru-c-compil
    1891        .dwattr $C$DW$107, DW_AT_decl_line(0xc4)
    1892        .dwattr $C$DW$107, DW_AT_decl_column(0x0d)
    1893
    1894$C$DW$108       .dwtag  DW_TAG_member
    1895        .dwattr $C$DW$108, DW_AT_type(*$C$DW$T$11)
    1896        .dwattr $C$DW$108, DW_AT_name("PMAO_PRU1")
    1897        .dwattr $C$DW$108, DW_AT_TI_symbol_name("PMAO_PRU1")
    1898        .dwattr $C$DW$108, DW_AT_bit_offset(0x1e)
    1899        .dwattr $C$DW$108, DW_AT_bit_size(0x01)
    1900        .dwattr $C$DW$108, DW_AT_data_member_location[DW_OP_plus_uconst 0x0]
    1901        .dwattr $C$DW$108, DW_AT_accessibility(DW_ACCESS_public)
    1902        .dwattr $C$DW$108, DW_AT_decl_file("/home/joerg/retrocmp/dec/UniBone/91_3rd_party/pru-c-compil
    1903        .dwattr $C$DW$108, DW_AT_decl_line(0xc5)
    1904        .dwattr $C$DW$108, DW_AT_decl_column(0x0d)
    1905
    1906$C$DW$109       .dwtag  DW_TAG_member
    1907        .dwattr $C$DW$109, DW_AT_type(*$C$DW$T$11)
    1908        .dwattr $C$DW$109, DW_AT_name("rsvd2")
    1909        .dwattr $C$DW$109, DW_AT_TI_symbol_name("rsvd2")
PRU Assembler Unix v2.3.1 Sun Mar 31 20:55:30 2019

Tools Copyright (c) 2012-2017 Texas Instruments Incorporated
pru1_buslatches.asm                                                  PAGE   36

    1910        .dwattr $C$DW$109, DW_AT_bit_offset(0x00)
    1911        .dwattr $C$DW$109, DW_AT_bit_size(0x1e)
    1912        .dwattr $C$DW$109, DW_AT_data_member_location[DW_OP_plus_uconst 0x0]
    1913        .dwattr $C$DW$109, DW_AT_accessibility(DW_ACCESS_public)
    1914        .dwattr $C$DW$109, DW_AT_decl_file("/home/joerg/retrocmp/dec/UniBone/91_3rd_party/pru-c-compil
    1915        .dwattr $C$DW$109, DW_AT_decl_line(0xc6)
    1916        .dwattr $C$DW$109, DW_AT_decl_column(0x0d)
    1917
    1918        .dwattr $C$DW$T$28, DW_AT_decl_file("/home/joerg/retrocmp/dec/UniBone/91_3rd_party/pru-c-compi
    1919        .dwattr $C$DW$T$28, DW_AT_decl_line(0xc3)
    1920        .dwattr $C$DW$T$28, DW_AT_decl_column(0x13)
    1921        .dwendtag $C$DW$T$28
    1922
    1923$C$DW$T$58      .dwtag  DW_TAG_volatile_type
    1924        .dwattr $C$DW$T$58, DW_AT_type(*$C$DW$T$28)
    1925
    1926
    1927$C$DW$T$29      .dwtag  DW_TAG_structure_type
    1928        .dwattr $C$DW$T$29, DW_AT_byte_size(0x04)
    1929$C$DW$110       .dwtag  DW_TAG_member
    1930        .dwattr $C$DW$110, DW_AT_type(*$C$DW$T$11)
    1931        .dwattr $C$DW$110, DW_AT_name("OCP_EN")
    1932        .dwattr $C$DW$110, DW_AT_TI_symbol_name("OCP_EN")
    1933        .dwattr $C$DW$110, DW_AT_bit_offset(0x1f)
    1934        .dwattr $C$DW$110, DW_AT_bit_size(0x01)
    1935        .dwattr $C$DW$110, DW_AT_data_member_location[DW_OP_plus_uconst 0x0]
    1936        .dwattr $C$DW$110, DW_AT_accessibility(DW_ACCESS_public)
    1937        .dwattr $C$DW$110, DW_AT_decl_file("/home/joerg/retrocmp/dec/UniBone/91_3rd_party/pru-c-compil
    1938        .dwattr $C$DW$110, DW_AT_decl_line(0xd3)
    1939        .dwattr $C$DW$110, DW_AT_decl_column(0x0d)
    1940
    1941$C$DW$111       .dwtag  DW_TAG_member
    1942        .dwattr $C$DW$111, DW_AT_type(*$C$DW$T$11)
    1943        .dwattr $C$DW$111, DW_AT_name("rsvd1")
    1944        .dwattr $C$DW$111, DW_AT_TI_symbol_name("rsvd1")
    1945        .dwattr $C$DW$111, DW_AT_bit_offset(0x00)
    1946        .dwattr $C$DW$111, DW_AT_bit_size(0x1f)
    1947        .dwattr $C$DW$111, DW_AT_data_member_location[DW_OP_plus_uconst 0x0]
    1948        .dwattr $C$DW$111, DW_AT_accessibility(DW_ACCESS_public)
    1949        .dwattr $C$DW$111, DW_AT_decl_file("/home/joerg/retrocmp/dec/UniBone/91_3rd_party/pru-c-compil
    1950        .dwattr $C$DW$111, DW_AT_decl_line(0xd4)
    1951        .dwattr $C$DW$111, DW_AT_decl_column(0x0d)
    1952
    1953        .dwattr $C$DW$T$29, DW_AT_decl_file("/home/joerg/retrocmp/dec/UniBone/91_3rd_party/pru-c-compi
    1954        .dwattr $C$DW$T$29, DW_AT_decl_line(0xd2)
    1955        .dwattr $C$DW$T$29, DW_AT_decl_column(0x13)
    1956        .dwendtag $C$DW$T$29
    1957
    1958$C$DW$T$60      .dwtag  DW_TAG_volatile_type
    1959        .dwattr $C$DW$T$60, DW_AT_type(*$C$DW$T$29)
    1960
    1961
    1962$C$DW$T$30      .dwtag  DW_TAG_structure_type
    1963        .dwattr $C$DW$T$30, DW_AT_byte_size(0x04)
    1964$C$DW$112       .dwtag  DW_TAG_member
PRU Assembler Unix v2.3.1 Sun Mar 31 20:55:30 2019

Tools Copyright (c) 2012-2017 Texas Instruments Incorporated
pru1_buslatches.asm                                                  PAGE   37

    1965        .dwattr $C$DW$112, DW_AT_type(*$C$DW$T$11)
    1966        .dwattr $C$DW$112, DW_AT_name("PRU1_PAD_HP_EN")
    1967        .dwattr $C$DW$112, DW_AT_TI_symbol_name("PRU1_PAD_HP_EN")
    1968        .dwattr $C$DW$112, DW_AT_bit_offset(0x1f)
    1969        .dwattr $C$DW$112, DW_AT_bit_size(0x01)
    1970        .dwattr $C$DW$112, DW_AT_data_member_location[DW_OP_plus_uconst 0x0]
    1971        .dwattr $C$DW$112, DW_AT_accessibility(DW_ACCESS_public)
    1972        .dwattr $C$DW$112, DW_AT_decl_file("/home/joerg/retrocmp/dec/UniBone/91_3rd_party/pru-c-compil
    1973        .dwattr $C$DW$112, DW_AT_decl_line(0xde)
    1974        .dwattr $C$DW$112, DW_AT_decl_column(0x0d)
    1975
    1976$C$DW$113       .dwtag  DW_TAG_member
    1977        .dwattr $C$DW$113, DW_AT_type(*$C$DW$T$11)
    1978        .dwattr $C$DW$113, DW_AT_name("XFR_SHIFT_EN")
    1979        .dwattr $C$DW$113, DW_AT_TI_symbol_name("XFR_SHIFT_EN")
    1980        .dwattr $C$DW$113, DW_AT_bit_offset(0x1e)
    1981        .dwattr $C$DW$113, DW_AT_bit_size(0x01)
    1982        .dwattr $C$DW$113, DW_AT_data_member_location[DW_OP_plus_uconst 0x0]
    1983        .dwattr $C$DW$113, DW_AT_accessibility(DW_ACCESS_public)
    1984        .dwattr $C$DW$113, DW_AT_decl_file("/home/joerg/retrocmp/dec/UniBone/91_3rd_party/pru-c-compil
    1985        .dwattr $C$DW$113, DW_AT_decl_line(0xdf)
    1986        .dwattr $C$DW$113, DW_AT_decl_column(0x0d)
    1987
    1988$C$DW$114       .dwtag  DW_TAG_member
    1989        .dwattr $C$DW$114, DW_AT_type(*$C$DW$T$11)
    1990        .dwattr $C$DW$114, DW_AT_name("rsvd2")
    1991        .dwattr $C$DW$114, DW_AT_TI_symbol_name("rsvd2")
    1992        .dwattr $C$DW$114, DW_AT_bit_offset(0x00)
    1993        .dwattr $C$DW$114, DW_AT_bit_size(0x1e)
    1994        .dwattr $C$DW$114, DW_AT_data_member_location[DW_OP_plus_uconst 0x0]
    1995        .dwattr $C$DW$114, DW_AT_accessibility(DW_ACCESS_public)
    1996        .dwattr $C$DW$114, DW_AT_decl_file("/home/joerg/retrocmp/dec/UniBone/91_3rd_party/pru-c-compil
    1997        .dwattr $C$DW$114, DW_AT_decl_line(0xe0)
    1998        .dwattr $C$DW$114, DW_AT_decl_column(0x0d)
    1999
    2000        .dwattr $C$DW$T$30, DW_AT_decl_file("/home/joerg/retrocmp/dec/UniBone/91_3rd_party/pru-c-compi
    2001        .dwattr $C$DW$T$30, DW_AT_decl_line(0xdd)
    2002        .dwattr $C$DW$T$30, DW_AT_decl_column(0x13)
    2003        .dwendtag $C$DW$T$30
    2004
    2005$C$DW$T$62      .dwtag  DW_TAG_volatile_type
    2006        .dwattr $C$DW$T$62, DW_AT_type(*$C$DW$T$30)
    2007
    2008
    2009$C$DW$T$31      .dwtag  DW_TAG_structure_type
    2010        .dwattr $C$DW$T$31, DW_AT_byte_size(0x04)
    2011$C$DW$115       .dwtag  DW_TAG_member
    2012        .dwattr $C$DW$115, DW_AT_type(*$C$DW$T$11)
    2013        .dwattr $C$DW$115, DW_AT_name("PIN_MUX_SEL")
    2014        .dwattr $C$DW$115, DW_AT_TI_symbol_name("PIN_MUX_SEL")
    2015        .dwattr $C$DW$115, DW_AT_bit_offset(0x18)
    2016        .dwattr $C$DW$115, DW_AT_bit_size(0x08)
    2017        .dwattr $C$DW$115, DW_AT_data_member_location[DW_OP_plus_uconst 0x0]
    2018        .dwattr $C$DW$115, DW_AT_accessibility(DW_ACCESS_public)
    2019        .dwattr $C$DW$115, DW_AT_decl_file("/home/joerg/retrocmp/dec/UniBone/91_3rd_party/pru-c-compil
PRU Assembler Unix v2.3.1 Sun Mar 31 20:55:30 2019

Tools Copyright (c) 2012-2017 Texas Instruments Incorporated
pru1_buslatches.asm                                                  PAGE   38

    2020        .dwattr $C$DW$115, DW_AT_decl_line(0xec)
    2021        .dwattr $C$DW$115, DW_AT_decl_column(0x0d)
    2022
    2023$C$DW$116       .dwtag  DW_TAG_member
    2024        .dwattr $C$DW$116, DW_AT_type(*$C$DW$T$11)
    2025        .dwattr $C$DW$116, DW_AT_name("rsvd2")
    2026        .dwattr $C$DW$116, DW_AT_TI_symbol_name("rsvd2")
    2027        .dwattr $C$DW$116, DW_AT_bit_offset(0x00)
    2028        .dwattr $C$DW$116, DW_AT_bit_size(0x18)
    2029        .dwattr $C$DW$116, DW_AT_data_member_location[DW_OP_plus_uconst 0x0]
    2030        .dwattr $C$DW$116, DW_AT_accessibility(DW_ACCESS_public)
    2031        .dwattr $C$DW$116, DW_AT_decl_file("/home/joerg/retrocmp/dec/UniBone/91_3rd_party/pru-c-compil
    2032        .dwattr $C$DW$116, DW_AT_decl_line(0xed)
    2033        .dwattr $C$DW$116, DW_AT_decl_column(0x0d)
    2034
    2035        .dwattr $C$DW$T$31, DW_AT_decl_file("/home/joerg/retrocmp/dec/UniBone/91_3rd_party/pru-c-compi
    2036        .dwattr $C$DW$T$31, DW_AT_decl_line(0xeb)
    2037        .dwattr $C$DW$T$31, DW_AT_decl_column(0x13)
    2038        .dwendtag $C$DW$T$31
    2039
    2040$C$DW$T$64      .dwtag  DW_TAG_volatile_type
    2041        .dwattr $C$DW$T$64, DW_AT_type(*$C$DW$T$31)
    2042
    2043
    2044$C$DW$T$35      .dwtag  DW_TAG_structure_type
    2045        .dwattr $C$DW$T$35, DW_AT_byte_size(0x44)
    2046$C$DW$117       .dwtag  DW_TAG_member
    2047        .dwattr $C$DW$117, DW_AT_type(*$C$DW$T$41)
    2048        .dwattr $C$DW$117, DW_AT_name("$P$T0")
    2049        .dwattr $C$DW$117, DW_AT_TI_symbol_name("$P$T0")
    2050        .dwattr $C$DW$117, DW_AT_data_member_location[DW_OP_plus_uconst 0x0]
    2051        .dwattr $C$DW$117, DW_AT_accessibility(DW_ACCESS_public)
    2052        .dwattr $C$DW$117, DW_AT_decl_file("/home/joerg/retrocmp/dec/UniBone/91_3rd_party/pru-c-compil
    2053        .dwattr $C$DW$117, DW_AT_decl_line(0x29)
    2054        .dwattr $C$DW$117, DW_AT_decl_column(0x02)
    2055
    2056$C$DW$118       .dwtag  DW_TAG_member
    2057        .dwattr $C$DW$118, DW_AT_type(*$C$DW$T$43)
    2058        .dwattr $C$DW$118, DW_AT_name("$P$T1")
    2059        .dwattr $C$DW$118, DW_AT_TI_symbol_name("$P$T1")
    2060        .dwattr $C$DW$118, DW_AT_data_member_location[DW_OP_plus_uconst 0x4]
    2061        .dwattr $C$DW$118, DW_AT_accessibility(DW_ACCESS_public)
    2062        .dwattr $C$DW$118, DW_AT_decl_file("/home/joerg/retrocmp/dec/UniBone/91_3rd_party/pru-c-compil
    2063        .dwattr $C$DW$118, DW_AT_decl_line(0x33)
    2064        .dwattr $C$DW$118, DW_AT_decl_column(0x02)
    2065
    2066$C$DW$119       .dwtag  DW_TAG_member
    2067        .dwattr $C$DW$119, DW_AT_type(*$C$DW$T$45)
    2068        .dwattr $C$DW$119, DW_AT_name("$P$T2")
    2069        .dwattr $C$DW$119, DW_AT_TI_symbol_name("$P$T2")
    2070        .dwattr $C$DW$119, DW_AT_data_member_location[DW_OP_plus_uconst 0x8]
    2071        .dwattr $C$DW$119, DW_AT_accessibility(DW_ACCESS_public)
    2072        .dwattr $C$DW$119, DW_AT_decl_file("/home/joerg/retrocmp/dec/UniBone/91_3rd_party/pru-c-compil
    2073        .dwattr $C$DW$119, DW_AT_decl_line(0x41)
    2074        .dwattr $C$DW$119, DW_AT_decl_column(0x02)
PRU Assembler Unix v2.3.1 Sun Mar 31 20:55:30 2019

Tools Copyright (c) 2012-2017 Texas Instruments Incorporated
pru1_buslatches.asm                                                  PAGE   39

    2075
    2076$C$DW$120       .dwtag  DW_TAG_member
    2077        .dwattr $C$DW$120, DW_AT_type(*$C$DW$T$47)
    2078        .dwattr $C$DW$120, DW_AT_name("$P$T3")
    2079        .dwattr $C$DW$120, DW_AT_TI_symbol_name("$P$T3")
    2080        .dwattr $C$DW$120, DW_AT_data_member_location[DW_OP_plus_uconst 0xc]
    2081        .dwattr $C$DW$120, DW_AT_accessibility(DW_ACCESS_public)
    2082        .dwattr $C$DW$120, DW_AT_decl_file("/home/joerg/retrocmp/dec/UniBone/91_3rd_party/pru-c-compil
    2083        .dwattr $C$DW$120, DW_AT_decl_line(0x54)
    2084        .dwattr $C$DW$120, DW_AT_decl_column(0x02)
    2085
    2086$C$DW$121       .dwtag  DW_TAG_member
    2087        .dwattr $C$DW$121, DW_AT_type(*$C$DW$T$49)
    2088        .dwattr $C$DW$121, DW_AT_name("$P$T4")
    2089        .dwattr $C$DW$121, DW_AT_TI_symbol_name("$P$T4")
    2090        .dwattr $C$DW$121, DW_AT_data_member_location[DW_OP_plus_uconst 0x10]
    2091        .dwattr $C$DW$121, DW_AT_accessibility(DW_ACCESS_public)
    2092        .dwattr $C$DW$121, DW_AT_decl_file("/home/joerg/retrocmp/dec/UniBone/91_3rd_party/pru-c-compil
    2093        .dwattr $C$DW$121, DW_AT_decl_line(0x67)
    2094        .dwattr $C$DW$121, DW_AT_decl_column(0x02)
    2095
    2096$C$DW$122       .dwtag  DW_TAG_member
    2097        .dwattr $C$DW$122, DW_AT_type(*$C$DW$T$51)
    2098        .dwattr $C$DW$122, DW_AT_name("$P$T5")
    2099        .dwattr $C$DW$122, DW_AT_TI_symbol_name("$P$T5")
    2100        .dwattr $C$DW$122, DW_AT_data_member_location[DW_OP_plus_uconst 0x14]
    2101        .dwattr $C$DW$122, DW_AT_accessibility(DW_ACCESS_public)
    2102        .dwattr $C$DW$122, DW_AT_decl_file("/home/joerg/retrocmp/dec/UniBone/91_3rd_party/pru-c-compil
    2103        .dwattr $C$DW$122, DW_AT_decl_line(0x83)
    2104        .dwattr $C$DW$122, DW_AT_decl_column(0x02)
    2105
    2106$C$DW$123       .dwtag  DW_TAG_member
    2107        .dwattr $C$DW$123, DW_AT_type(*$C$DW$T$53)
    2108        .dwattr $C$DW$123, DW_AT_name("$P$T6")
    2109        .dwattr $C$DW$123, DW_AT_TI_symbol_name("$P$T6")
    2110        .dwattr $C$DW$123, DW_AT_data_member_location[DW_OP_plus_uconst 0x18]
    2111        .dwattr $C$DW$123, DW_AT_accessibility(DW_ACCESS_public)
    2112        .dwattr $C$DW$123, DW_AT_decl_file("/home/joerg/retrocmp/dec/UniBone/91_3rd_party/pru-c-compil
    2113        .dwattr $C$DW$123, DW_AT_decl_line(0x92)
    2114        .dwattr $C$DW$123, DW_AT_decl_column(0x02)
    2115
    2116$C$DW$124       .dwtag  DW_TAG_member
    2117        .dwattr $C$DW$124, DW_AT_type(*$C$DW$T$55)
    2118        .dwattr $C$DW$124, DW_AT_name("$P$T7")
    2119        .dwattr $C$DW$124, DW_AT_TI_symbol_name("$P$T7")
    2120        .dwattr $C$DW$124, DW_AT_data_member_location[DW_OP_plus_uconst 0x1c]
    2121        .dwattr $C$DW$124, DW_AT_accessibility(DW_ACCESS_public)
    2122        .dwattr $C$DW$124, DW_AT_decl_file("/home/joerg/retrocmp/dec/UniBone/91_3rd_party/pru-c-compil
    2123        .dwattr $C$DW$124, DW_AT_decl_line(0xa0)
    2124        .dwattr $C$DW$124, DW_AT_decl_column(0x02)
    2125
    2126$C$DW$125       .dwtag  DW_TAG_member
    2127        .dwattr $C$DW$125, DW_AT_type(*$C$DW$T$57)
    2128        .dwattr $C$DW$125, DW_AT_name("$P$T8")
    2129        .dwattr $C$DW$125, DW_AT_TI_symbol_name("$P$T8")
PRU Assembler Unix v2.3.1 Sun Mar 31 20:55:30 2019

Tools Copyright (c) 2012-2017 Texas Instruments Incorporated
pru1_buslatches.asm                                                  PAGE   40

    2130        .dwattr $C$DW$125, DW_AT_data_member_location[DW_OP_plus_uconst 0x20]
    2131        .dwattr $C$DW$125, DW_AT_accessibility(DW_ACCESS_public)
    2132        .dwattr $C$DW$125, DW_AT_decl_file("/home/joerg/retrocmp/dec/UniBone/91_3rd_party/pru-c-compil
    2133        .dwattr $C$DW$125, DW_AT_decl_line(0xaf)
    2134        .dwattr $C$DW$125, DW_AT_decl_column(0x02)
    2135
    2136$C$DW$126       .dwtag  DW_TAG_member
    2137        .dwattr $C$DW$126, DW_AT_type(*$C$DW$T$32)
    2138        .dwattr $C$DW$126, DW_AT_name("rsvd24")
    2139        .dwattr $C$DW$126, DW_AT_TI_symbol_name("rsvd24")
    2140        .dwattr $C$DW$126, DW_AT_data_member_location[DW_OP_plus_uconst 0x24]
    2141        .dwattr $C$DW$126, DW_AT_accessibility(DW_ACCESS_public)
    2142        .dwattr $C$DW$126, DW_AT_decl_file("/home/joerg/retrocmp/dec/UniBone/91_3rd_party/pru-c-compil
    2143        .dwattr $C$DW$126, DW_AT_decl_line(0xbc)
    2144        .dwattr $C$DW$126, DW_AT_decl_column(0x0b)
    2145
    2146$C$DW$127       .dwtag  DW_TAG_member
    2147        .dwattr $C$DW$127, DW_AT_type(*$C$DW$T$59)
    2148        .dwattr $C$DW$127, DW_AT_name("$P$T9")
    2149        .dwattr $C$DW$127, DW_AT_TI_symbol_name("$P$T9")
    2150        .dwattr $C$DW$127, DW_AT_data_member_location[DW_OP_plus_uconst 0x28]
    2151        .dwattr $C$DW$127, DW_AT_accessibility(DW_ACCESS_public)
    2152        .dwattr $C$DW$127, DW_AT_decl_file("/home/joerg/retrocmp/dec/UniBone/91_3rd_party/pru-c-compil
    2153        .dwattr $C$DW$127, DW_AT_decl_line(0xc0)
    2154        .dwattr $C$DW$127, DW_AT_decl_column(0x02)
    2155
    2156$C$DW$128       .dwtag  DW_TAG_member
    2157        .dwattr $C$DW$128, DW_AT_type(*$C$DW$T$33)
    2158        .dwattr $C$DW$128, DW_AT_name("rsvd2c")
    2159        .dwattr $C$DW$128, DW_AT_TI_symbol_name("rsvd2c")
    2160        .dwattr $C$DW$128, DW_AT_data_member_location[DW_OP_plus_uconst 0x2c]
    2161        .dwattr $C$DW$128, DW_AT_accessibility(DW_ACCESS_public)
    2162        .dwattr $C$DW$128, DW_AT_decl_file("/home/joerg/retrocmp/dec/UniBone/91_3rd_party/pru-c-compil
    2163        .dwattr $C$DW$128, DW_AT_decl_line(0xcb)
    2164        .dwattr $C$DW$128, DW_AT_decl_column(0x0b)
    2165
    2166$C$DW$129       .dwtag  DW_TAG_member
    2167        .dwattr $C$DW$129, DW_AT_type(*$C$DW$T$61)
    2168        .dwattr $C$DW$129, DW_AT_name("$P$T10")
    2169        .dwattr $C$DW$129, DW_AT_TI_symbol_name("$P$T10")
    2170        .dwattr $C$DW$129, DW_AT_data_member_location[DW_OP_plus_uconst 0x30]
    2171        .dwattr $C$DW$129, DW_AT_accessibility(DW_ACCESS_public)
    2172        .dwattr $C$DW$129, DW_AT_decl_file("/home/joerg/retrocmp/dec/UniBone/91_3rd_party/pru-c-compil
    2173        .dwattr $C$DW$129, DW_AT_decl_line(0xcf)
    2174        .dwattr $C$DW$129, DW_AT_decl_column(0x02)
    2175
    2176$C$DW$130       .dwtag  DW_TAG_member
    2177        .dwattr $C$DW$130, DW_AT_type(*$C$DW$T$63)
    2178        .dwattr $C$DW$130, DW_AT_name("$P$T11")
    2179        .dwattr $C$DW$130, DW_AT_TI_symbol_name("$P$T11")
    2180        .dwattr $C$DW$130, DW_AT_data_member_location[DW_OP_plus_uconst 0x34]
    2181        .dwattr $C$DW$130, DW_AT_accessibility(DW_ACCESS_public)
    2182        .dwattr $C$DW$130, DW_AT_decl_file("/home/joerg/retrocmp/dec/UniBone/91_3rd_party/pru-c-compil
    2183        .dwattr $C$DW$130, DW_AT_decl_line(0xda)
    2184        .dwattr $C$DW$130, DW_AT_decl_column(0x02)
PRU Assembler Unix v2.3.1 Sun Mar 31 20:55:30 2019

Tools Copyright (c) 2012-2017 Texas Instruments Incorporated
pru1_buslatches.asm                                                  PAGE   41

    2185
    2186$C$DW$131       .dwtag  DW_TAG_member
    2187        .dwattr $C$DW$131, DW_AT_type(*$C$DW$T$34)
    2188        .dwattr $C$DW$131, DW_AT_name("rsvd38")
    2189        .dwattr $C$DW$131, DW_AT_TI_symbol_name("rsvd38")
    2190        .dwattr $C$DW$131, DW_AT_data_member_location[DW_OP_plus_uconst 0x38]
    2191        .dwattr $C$DW$131, DW_AT_accessibility(DW_ACCESS_public)
    2192        .dwattr $C$DW$131, DW_AT_decl_file("/home/joerg/retrocmp/dec/UniBone/91_3rd_party/pru-c-compil
    2193        .dwattr $C$DW$131, DW_AT_decl_line(0xe5)
    2194        .dwattr $C$DW$131, DW_AT_decl_column(0x0b)
    2195
    2196$C$DW$132       .dwtag  DW_TAG_member
    2197        .dwattr $C$DW$132, DW_AT_type(*$C$DW$T$65)
    2198        .dwattr $C$DW$132, DW_AT_name("$P$T12")
    2199        .dwattr $C$DW$132, DW_AT_TI_symbol_name("$P$T12")
    2200        .dwattr $C$DW$132, DW_AT_data_member_location[DW_OP_plus_uconst 0x40]
    2201        .dwattr $C$DW$132, DW_AT_accessibility(DW_ACCESS_public)
    2202        .dwattr $C$DW$132, DW_AT_decl_file("/home/joerg/retrocmp/dec/UniBone/91_3rd_party/pru-c-compil
    2203        .dwattr $C$DW$132, DW_AT_decl_line(0xe8)
    2204        .dwattr $C$DW$132, DW_AT_decl_column(0x02)
    2205
    2206        .dwattr $C$DW$T$35, DW_AT_decl_file("/home/joerg/retrocmp/dec/UniBone/91_3rd_party/pru-c-compi
    2207        .dwattr $C$DW$T$35, DW_AT_decl_line(0x26)
    2208        .dwattr $C$DW$T$35, DW_AT_decl_column(0x10)
    2209        .dwendtag $C$DW$T$35
    2210
    2211$C$DW$T$69      .dwtag  DW_TAG_typedef
    2212        .dwattr $C$DW$T$69, DW_AT_name("pruCfg")
    2213        .dwattr $C$DW$T$69, DW_AT_type(*$C$DW$T$35)
    2214        .dwattr $C$DW$T$69, DW_AT_language(DW_LANG_C)
    2215        .dwattr $C$DW$T$69, DW_AT_decl_file("/home/joerg/retrocmp/dec/UniBone/91_3rd_party/pru-c-compi
    2216        .dwattr $C$DW$T$69, DW_AT_decl_line(0xf0)
    2217        .dwattr $C$DW$T$69, DW_AT_decl_column(0x03)
    2218
    2219$C$DW$T$70      .dwtag  DW_TAG_volatile_type
    2220        .dwattr $C$DW$T$70, DW_AT_type(*$C$DW$T$69)
    2221
    2222
    2223$C$DW$T$38      .dwtag  DW_TAG_structure_type
    2224        .dwattr $C$DW$T$38, DW_AT_byte_size(0x10)
    2225$C$DW$133       .dwtag  DW_TAG_member
    2226        .dwattr $C$DW$133, DW_AT_type(*$C$DW$T$37)
    2227        .dwattr $C$DW$133, DW_AT_name("cur_reg_val")
    2228        .dwattr $C$DW$133, DW_AT_TI_symbol_name("cur_reg_val")
    2229        .dwattr $C$DW$133, DW_AT_data_member_location[DW_OP_plus_uconst 0x0]
    2230        .dwattr $C$DW$133, DW_AT_accessibility(DW_ACCESS_public)
    2231        .dwattr $C$DW$133, DW_AT_decl_file("pru1_buslatches.h")
    2232        .dwattr $C$DW$133, DW_AT_decl_line(0x22)
    2233        .dwattr $C$DW$133, DW_AT_decl_column(0x0a)
    2234
    2235$C$DW$134       .dwtag  DW_TAG_member
    2236        .dwattr $C$DW$134, DW_AT_type(*$C$DW$T$37)
    2237        .dwattr $C$DW$134, DW_AT_name("bidi_bitwidth")
    2238        .dwattr $C$DW$134, DW_AT_TI_symbol_name("bidi_bitwidth")
    2239        .dwattr $C$DW$134, DW_AT_data_member_location[DW_OP_plus_uconst 0x8]
PRU Assembler Unix v2.3.1 Sun Mar 31 20:55:30 2019

Tools Copyright (c) 2012-2017 Texas Instruments Incorporated
pru1_buslatches.asm                                                  PAGE   42

    2240        .dwattr $C$DW$134, DW_AT_accessibility(DW_ACCESS_public)
    2241        .dwattr $C$DW$134, DW_AT_decl_file("pru1_buslatches.h")
    2242        .dwattr $C$DW$134, DW_AT_decl_line(0x26)
    2243        .dwattr $C$DW$134, DW_AT_decl_column(0x0a)
    2244
    2245        .dwattr $C$DW$T$38, DW_AT_decl_file("pru1_buslatches.h")
    2246        .dwattr $C$DW$T$38, DW_AT_decl_line(0x21)
    2247        .dwattr $C$DW$T$38, DW_AT_decl_column(0x10)
    2248        .dwendtag $C$DW$T$38
    2249
    2250$C$DW$T$72      .dwtag  DW_TAG_typedef
    2251        .dwattr $C$DW$T$72, DW_AT_name("buslatches_t")
    2252        .dwattr $C$DW$T$72, DW_AT_type(*$C$DW$T$38)
    2253        .dwattr $C$DW$T$72, DW_AT_language(DW_LANG_C)
    2254        .dwattr $C$DW$T$72, DW_AT_decl_file("pru1_buslatches.h")
    2255        .dwattr $C$DW$T$72, DW_AT_decl_line(0x2c)
    2256        .dwattr $C$DW$T$72, DW_AT_decl_column(0x03)
    2257
    2258
    2259$C$DW$T$41      .dwtag  DW_TAG_union_type
    2260        .dwattr $C$DW$T$41, DW_AT_byte_size(0x04)
    2261$C$DW$135       .dwtag  DW_TAG_member
    2262        .dwattr $C$DW$135, DW_AT_type(*$C$DW$T$39)
    2263        .dwattr $C$DW$135, DW_AT_name("REVID")
    2264        .dwattr $C$DW$135, DW_AT_TI_symbol_name("REVID")
    2265        .dwattr $C$DW$135, DW_AT_data_member_location[DW_OP_plus_uconst 0x0]
    2266        .dwattr $C$DW$135, DW_AT_accessibility(DW_ACCESS_public)
    2267        .dwattr $C$DW$135, DW_AT_decl_file("/home/joerg/retrocmp/dec/UniBone/91_3rd_party/pru-c-compil
    2268        .dwattr $C$DW$135, DW_AT_decl_line(0x2a)
    2269        .dwattr $C$DW$135, DW_AT_decl_column(0x15)
    2270
    2271$C$DW$136       .dwtag  DW_TAG_member
    2272        .dwattr $C$DW$136, DW_AT_type(*$C$DW$T$40)
    2273        .dwattr $C$DW$136, DW_AT_name("REVID_bit")
    2274        .dwattr $C$DW$136, DW_AT_TI_symbol_name("REVID_bit")
    2275        .dwattr $C$DW$136, DW_AT_data_member_location[DW_OP_plus_uconst 0x0]
    2276        .dwattr $C$DW$136, DW_AT_accessibility(DW_ACCESS_public)
    2277        .dwattr $C$DW$136, DW_AT_decl_file("/home/joerg/retrocmp/dec/UniBone/91_3rd_party/pru-c-compil
    2278        .dwattr $C$DW$136, DW_AT_decl_line(0x2e)
    2279        .dwattr $C$DW$136, DW_AT_decl_column(0x05)
    2280
    2281        .dwattr $C$DW$T$41, DW_AT_decl_file("/home/joerg/retrocmp/dec/UniBone/91_3rd_party/pru-c-compi
    2282        .dwattr $C$DW$T$41, DW_AT_decl_line(0x29)
    2283        .dwattr $C$DW$T$41, DW_AT_decl_column(0x08)
    2284        .dwendtag $C$DW$T$41
    2285
    2286
    2287$C$DW$T$43      .dwtag  DW_TAG_union_type
    2288        .dwattr $C$DW$T$43, DW_AT_byte_size(0x04)
    2289$C$DW$137       .dwtag  DW_TAG_member
    2290        .dwattr $C$DW$137, DW_AT_type(*$C$DW$T$39)
    2291        .dwattr $C$DW$137, DW_AT_name("SYSCFG")
    2292        .dwattr $C$DW$137, DW_AT_TI_symbol_name("SYSCFG")
    2293        .dwattr $C$DW$137, DW_AT_data_member_location[DW_OP_plus_uconst 0x0]
    2294        .dwattr $C$DW$137, DW_AT_accessibility(DW_ACCESS_public)
PRU Assembler Unix v2.3.1 Sun Mar 31 20:55:30 2019

Tools Copyright (c) 2012-2017 Texas Instruments Incorporated
pru1_buslatches.asm                                                  PAGE   43

    2295        .dwattr $C$DW$137, DW_AT_decl_file("/home/joerg/retrocmp/dec/UniBone/91_3rd_party/pru-c-compil
    2296        .dwattr $C$DW$137, DW_AT_decl_line(0x34)
    2297        .dwattr $C$DW$137, DW_AT_decl_column(0x15)
    2298
    2299$C$DW$138       .dwtag  DW_TAG_member
    2300        .dwattr $C$DW$138, DW_AT_type(*$C$DW$T$42)
    2301        .dwattr $C$DW$138, DW_AT_name("SYSCFG_bit")
    2302        .dwattr $C$DW$138, DW_AT_TI_symbol_name("SYSCFG_bit")
    2303        .dwattr $C$DW$138, DW_AT_data_member_location[DW_OP_plus_uconst 0x0]
    2304        .dwattr $C$DW$138, DW_AT_accessibility(DW_ACCESS_public)
    2305        .dwattr $C$DW$138, DW_AT_decl_file("/home/joerg/retrocmp/dec/UniBone/91_3rd_party/pru-c-compil
    2306        .dwattr $C$DW$138, DW_AT_decl_line(0x3c)
    2307        .dwattr $C$DW$138, DW_AT_decl_column(0x05)
    2308
    2309        .dwattr $C$DW$T$43, DW_AT_decl_file("/home/joerg/retrocmp/dec/UniBone/91_3rd_party/pru-c-compi
    2310        .dwattr $C$DW$T$43, DW_AT_decl_line(0x33)
    2311        .dwattr $C$DW$T$43, DW_AT_decl_column(0x08)
    2312        .dwendtag $C$DW$T$43
    2313
    2314
    2315$C$DW$T$45      .dwtag  DW_TAG_union_type
    2316        .dwattr $C$DW$T$45, DW_AT_byte_size(0x04)
    2317$C$DW$139       .dwtag  DW_TAG_member
    2318        .dwattr $C$DW$139, DW_AT_type(*$C$DW$T$39)
    2319        .dwattr $C$DW$139, DW_AT_name("GPCFG0")
    2320        .dwattr $C$DW$139, DW_AT_TI_symbol_name("GPCFG0")
    2321        .dwattr $C$DW$139, DW_AT_data_member_location[DW_OP_plus_uconst 0x0]
    2322        .dwattr $C$DW$139, DW_AT_accessibility(DW_ACCESS_public)
    2323        .dwattr $C$DW$139, DW_AT_decl_file("/home/joerg/retrocmp/dec/UniBone/91_3rd_party/pru-c-compil
    2324        .dwattr $C$DW$139, DW_AT_decl_line(0x42)
    2325        .dwattr $C$DW$139, DW_AT_decl_column(0x15)
    2326
    2327$C$DW$140       .dwtag  DW_TAG_member
    2328        .dwattr $C$DW$140, DW_AT_type(*$C$DW$T$44)
    2329        .dwattr $C$DW$140, DW_AT_name("GPCFG0_bit")
    2330        .dwattr $C$DW$140, DW_AT_TI_symbol_name("GPCFG0_bit")
    2331        .dwattr $C$DW$140, DW_AT_data_member_location[DW_OP_plus_uconst 0x0]
    2332        .dwattr $C$DW$140, DW_AT_accessibility(DW_ACCESS_public)
    2333        .dwattr $C$DW$140, DW_AT_decl_file("/home/joerg/retrocmp/dec/UniBone/91_3rd_party/pru-c-compil
    2334        .dwattr $C$DW$140, DW_AT_decl_line(0x4f)
    2335        .dwattr $C$DW$140, DW_AT_decl_column(0x05)
    2336
    2337        .dwattr $C$DW$T$45, DW_AT_decl_file("/home/joerg/retrocmp/dec/UniBone/91_3rd_party/pru-c-compi
    2338        .dwattr $C$DW$T$45, DW_AT_decl_line(0x41)
    2339        .dwattr $C$DW$T$45, DW_AT_decl_column(0x08)
    2340        .dwendtag $C$DW$T$45
    2341
    2342
    2343$C$DW$T$47      .dwtag  DW_TAG_union_type
    2344        .dwattr $C$DW$T$47, DW_AT_byte_size(0x04)
    2345$C$DW$141       .dwtag  DW_TAG_member
    2346        .dwattr $C$DW$141, DW_AT_type(*$C$DW$T$39)
    2347        .dwattr $C$DW$141, DW_AT_name("GPCFG1")
    2348        .dwattr $C$DW$141, DW_AT_TI_symbol_name("GPCFG1")
    2349        .dwattr $C$DW$141, DW_AT_data_member_location[DW_OP_plus_uconst 0x0]
PRU Assembler Unix v2.3.1 Sun Mar 31 20:55:30 2019

Tools Copyright (c) 2012-2017 Texas Instruments Incorporated
pru1_buslatches.asm                                                  PAGE   44

    2350        .dwattr $C$DW$141, DW_AT_accessibility(DW_ACCESS_public)
    2351        .dwattr $C$DW$141, DW_AT_decl_file("/home/joerg/retrocmp/dec/UniBone/91_3rd_party/pru-c-compil
    2352        .dwattr $C$DW$141, DW_AT_decl_line(0x55)
    2353        .dwattr $C$DW$141, DW_AT_decl_column(0x15)
    2354
    2355$C$DW$142       .dwtag  DW_TAG_member
    2356        .dwattr $C$DW$142, DW_AT_type(*$C$DW$T$46)
    2357        .dwattr $C$DW$142, DW_AT_name("GPCFG1_bit")
    2358        .dwattr $C$DW$142, DW_AT_TI_symbol_name("GPCFG1_bit")
    2359        .dwattr $C$DW$142, DW_AT_data_member_location[DW_OP_plus_uconst 0x0]
    2360        .dwattr $C$DW$142, DW_AT_accessibility(DW_ACCESS_public)
    2361        .dwattr $C$DW$142, DW_AT_decl_file("/home/joerg/retrocmp/dec/UniBone/91_3rd_party/pru-c-compil
    2362        .dwattr $C$DW$142, DW_AT_decl_line(0x62)
    2363        .dwattr $C$DW$142, DW_AT_decl_column(0x05)
    2364
    2365        .dwattr $C$DW$T$47, DW_AT_decl_file("/home/joerg/retrocmp/dec/UniBone/91_3rd_party/pru-c-compi
    2366        .dwattr $C$DW$T$47, DW_AT_decl_line(0x54)
    2367        .dwattr $C$DW$T$47, DW_AT_decl_column(0x08)
    2368        .dwendtag $C$DW$T$47
    2369
    2370
    2371$C$DW$T$49      .dwtag  DW_TAG_union_type
    2372        .dwattr $C$DW$T$49, DW_AT_byte_size(0x04)
    2373$C$DW$143       .dwtag  DW_TAG_member
    2374        .dwattr $C$DW$143, DW_AT_type(*$C$DW$T$39)
    2375        .dwattr $C$DW$143, DW_AT_name("CGR")
    2376        .dwattr $C$DW$143, DW_AT_TI_symbol_name("CGR")
    2377        .dwattr $C$DW$143, DW_AT_data_member_location[DW_OP_plus_uconst 0x0]
    2378        .dwattr $C$DW$143, DW_AT_accessibility(DW_ACCESS_public)
    2379        .dwattr $C$DW$143, DW_AT_decl_file("/home/joerg/retrocmp/dec/UniBone/91_3rd_party/pru-c-compil
    2380        .dwattr $C$DW$143, DW_AT_decl_line(0x68)
    2381        .dwattr $C$DW$143, DW_AT_decl_column(0x15)
    2382
    2383$C$DW$144       .dwtag  DW_TAG_member
    2384        .dwattr $C$DW$144, DW_AT_type(*$C$DW$T$48)
    2385        .dwattr $C$DW$144, DW_AT_name("CGR_bit")
    2386        .dwattr $C$DW$144, DW_AT_TI_symbol_name("CGR_bit")
    2387        .dwattr $C$DW$144, DW_AT_data_member_location[DW_OP_plus_uconst 0x0]
    2388        .dwattr $C$DW$144, DW_AT_accessibility(DW_ACCESS_public)
    2389        .dwattr $C$DW$144, DW_AT_decl_file("/home/joerg/retrocmp/dec/UniBone/91_3rd_party/pru-c-compil
    2390        .dwattr $C$DW$144, DW_AT_decl_line(0x7e)
    2391        .dwattr $C$DW$144, DW_AT_decl_column(0x05)
    2392
    2393        .dwattr $C$DW$T$49, DW_AT_decl_file("/home/joerg/retrocmp/dec/UniBone/91_3rd_party/pru-c-compi
    2394        .dwattr $C$DW$T$49, DW_AT_decl_line(0x67)
    2395        .dwattr $C$DW$T$49, DW_AT_decl_column(0x08)
    2396        .dwendtag $C$DW$T$49
    2397
    2398
    2399$C$DW$T$51      .dwtag  DW_TAG_union_type
    2400        .dwattr $C$DW$T$51, DW_AT_byte_size(0x04)
    2401$C$DW$145       .dwtag  DW_TAG_member
    2402        .dwattr $C$DW$145, DW_AT_type(*$C$DW$T$39)
    2403        .dwattr $C$DW$145, DW_AT_name("ISRP")
    2404        .dwattr $C$DW$145, DW_AT_TI_symbol_name("ISRP")
PRU Assembler Unix v2.3.1 Sun Mar 31 20:55:30 2019

Tools Copyright (c) 2012-2017 Texas Instruments Incorporated
pru1_buslatches.asm                                                  PAGE   45

    2405        .dwattr $C$DW$145, DW_AT_data_member_location[DW_OP_plus_uconst 0x0]
    2406        .dwattr $C$DW$145, DW_AT_accessibility(DW_ACCESS_public)
    2407        .dwattr $C$DW$145, DW_AT_decl_file("/home/joerg/retrocmp/dec/UniBone/91_3rd_party/pru-c-compil
    2408        .dwattr $C$DW$145, DW_AT_decl_line(0x84)
    2409        .dwattr $C$DW$145, DW_AT_decl_column(0x15)
    2410
    2411$C$DW$146       .dwtag  DW_TAG_member
    2412        .dwattr $C$DW$146, DW_AT_type(*$C$DW$T$50)
    2413        .dwattr $C$DW$146, DW_AT_name("ISRP_bit")
    2414        .dwattr $C$DW$146, DW_AT_TI_symbol_name("ISRP_bit")
    2415        .dwattr $C$DW$146, DW_AT_data_member_location[DW_OP_plus_uconst 0x0]
    2416        .dwattr $C$DW$146, DW_AT_accessibility(DW_ACCESS_public)
    2417        .dwattr $C$DW$146, DW_AT_decl_file("/home/joerg/retrocmp/dec/UniBone/91_3rd_party/pru-c-compil
    2418        .dwattr $C$DW$146, DW_AT_decl_line(0x8d)
    2419        .dwattr $C$DW$146, DW_AT_decl_column(0x05)
    2420
    2421        .dwattr $C$DW$T$51, DW_AT_decl_file("/home/joerg/retrocmp/dec/UniBone/91_3rd_party/pru-c-compi
    2422        .dwattr $C$DW$T$51, DW_AT_decl_line(0x83)
    2423        .dwattr $C$DW$T$51, DW_AT_decl_column(0x08)
    2424        .dwendtag $C$DW$T$51
    2425
    2426
    2427$C$DW$T$53      .dwtag  DW_TAG_union_type
    2428        .dwattr $C$DW$T$53, DW_AT_byte_size(0x04)
    2429$C$DW$147       .dwtag  DW_TAG_member
    2430        .dwattr $C$DW$147, DW_AT_type(*$C$DW$T$39)
    2431        .dwattr $C$DW$147, DW_AT_name("ISP")
    2432        .dwattr $C$DW$147, DW_AT_TI_symbol_name("ISP")
    2433        .dwattr $C$DW$147, DW_AT_data_member_location[DW_OP_plus_uconst 0x0]
    2434        .dwattr $C$DW$147, DW_AT_accessibility(DW_ACCESS_public)
    2435        .dwattr $C$DW$147, DW_AT_decl_file("/home/joerg/retrocmp/dec/UniBone/91_3rd_party/pru-c-compil
    2436        .dwattr $C$DW$147, DW_AT_decl_line(0x93)
    2437        .dwattr $C$DW$147, DW_AT_decl_column(0x15)
    2438
    2439$C$DW$148       .dwtag  DW_TAG_member
    2440        .dwattr $C$DW$148, DW_AT_type(*$C$DW$T$52)
    2441        .dwattr $C$DW$148, DW_AT_name("ISP_bit")
    2442        .dwattr $C$DW$148, DW_AT_TI_symbol_name("ISP_bit")
    2443        .dwattr $C$DW$148, DW_AT_data_member_location[DW_OP_plus_uconst 0x0]
    2444        .dwattr $C$DW$148, DW_AT_accessibility(DW_ACCESS_public)
    2445        .dwattr $C$DW$148, DW_AT_decl_file("/home/joerg/retrocmp/dec/UniBone/91_3rd_party/pru-c-compil
    2446        .dwattr $C$DW$148, DW_AT_decl_line(0x9c)
    2447        .dwattr $C$DW$148, DW_AT_decl_column(0x05)
    2448
    2449        .dwattr $C$DW$T$53, DW_AT_decl_file("/home/joerg/retrocmp/dec/UniBone/91_3rd_party/pru-c-compi
    2450        .dwattr $C$DW$T$53, DW_AT_decl_line(0x92)
    2451        .dwattr $C$DW$T$53, DW_AT_decl_column(0x08)
    2452        .dwendtag $C$DW$T$53
    2453
    2454
    2455$C$DW$T$55      .dwtag  DW_TAG_union_type
    2456        .dwattr $C$DW$T$55, DW_AT_byte_size(0x04)
    2457$C$DW$149       .dwtag  DW_TAG_member
    2458        .dwattr $C$DW$149, DW_AT_type(*$C$DW$T$39)
    2459        .dwattr $C$DW$149, DW_AT_name("IESP")
PRU Assembler Unix v2.3.1 Sun Mar 31 20:55:30 2019

Tools Copyright (c) 2012-2017 Texas Instruments Incorporated
pru1_buslatches.asm                                                  PAGE   46

    2460        .dwattr $C$DW$149, DW_AT_TI_symbol_name("IESP")
    2461        .dwattr $C$DW$149, DW_AT_data_member_location[DW_OP_plus_uconst 0x0]
    2462        .dwattr $C$DW$149, DW_AT_accessibility(DW_ACCESS_public)
    2463        .dwattr $C$DW$149, DW_AT_decl_file("/home/joerg/retrocmp/dec/UniBone/91_3rd_party/pru-c-compil
    2464        .dwattr $C$DW$149, DW_AT_decl_line(0xa1)
    2465        .dwattr $C$DW$149, DW_AT_decl_column(0x15)
    2466
    2467$C$DW$150       .dwtag  DW_TAG_member
    2468        .dwattr $C$DW$150, DW_AT_type(*$C$DW$T$54)
    2469        .dwattr $C$DW$150, DW_AT_name("IESP_bit")
    2470        .dwattr $C$DW$150, DW_AT_TI_symbol_name("IESP_bit")
    2471        .dwattr $C$DW$150, DW_AT_data_member_location[DW_OP_plus_uconst 0x0]
    2472        .dwattr $C$DW$150, DW_AT_accessibility(DW_ACCESS_public)
    2473        .dwattr $C$DW$150, DW_AT_decl_file("/home/joerg/retrocmp/dec/UniBone/91_3rd_party/pru-c-compil
    2474        .dwattr $C$DW$150, DW_AT_decl_line(0xaa)
    2475        .dwattr $C$DW$150, DW_AT_decl_column(0x05)
    2476
    2477        .dwattr $C$DW$T$55, DW_AT_decl_file("/home/joerg/retrocmp/dec/UniBone/91_3rd_party/pru-c-compi
    2478        .dwattr $C$DW$T$55, DW_AT_decl_line(0xa0)
    2479        .dwattr $C$DW$T$55, DW_AT_decl_column(0x08)
    2480        .dwendtag $C$DW$T$55
    2481
    2482
    2483$C$DW$T$57      .dwtag  DW_TAG_union_type
    2484        .dwattr $C$DW$T$57, DW_AT_byte_size(0x04)
    2485$C$DW$151       .dwtag  DW_TAG_member
    2486        .dwattr $C$DW$151, DW_AT_type(*$C$DW$T$39)
    2487        .dwattr $C$DW$151, DW_AT_name("IECP")
    2488        .dwattr $C$DW$151, DW_AT_TI_symbol_name("IECP")
    2489        .dwattr $C$DW$151, DW_AT_data_member_location[DW_OP_plus_uconst 0x0]
    2490        .dwattr $C$DW$151, DW_AT_accessibility(DW_ACCESS_public)
    2491        .dwattr $C$DW$151, DW_AT_decl_file("/home/joerg/retrocmp/dec/UniBone/91_3rd_party/pru-c-compil
    2492        .dwattr $C$DW$151, DW_AT_decl_line(0xb0)
    2493        .dwattr $C$DW$151, DW_AT_decl_column(0x15)
    2494
    2495$C$DW$152       .dwtag  DW_TAG_member
    2496        .dwattr $C$DW$152, DW_AT_type(*$C$DW$T$56)
    2497        .dwattr $C$DW$152, DW_AT_name("IECP_bit")
    2498        .dwattr $C$DW$152, DW_AT_TI_symbol_name("IECP_bit")
    2499        .dwattr $C$DW$152, DW_AT_data_member_location[DW_OP_plus_uconst 0x0]
    2500        .dwattr $C$DW$152, DW_AT_accessibility(DW_ACCESS_public)
    2501        .dwattr $C$DW$152, DW_AT_decl_file("/home/joerg/retrocmp/dec/UniBone/91_3rd_party/pru-c-compil
    2502        .dwattr $C$DW$152, DW_AT_decl_line(0xb8)
    2503        .dwattr $C$DW$152, DW_AT_decl_column(0x05)
    2504
    2505        .dwattr $C$DW$T$57, DW_AT_decl_file("/home/joerg/retrocmp/dec/UniBone/91_3rd_party/pru-c-compi
    2506        .dwattr $C$DW$T$57, DW_AT_decl_line(0xaf)
    2507        .dwattr $C$DW$T$57, DW_AT_decl_column(0x08)
    2508        .dwendtag $C$DW$T$57
    2509
    2510
    2511$C$DW$T$59      .dwtag  DW_TAG_union_type
    2512        .dwattr $C$DW$T$59, DW_AT_byte_size(0x04)
    2513$C$DW$153       .dwtag  DW_TAG_member
    2514        .dwattr $C$DW$153, DW_AT_type(*$C$DW$T$39)
PRU Assembler Unix v2.3.1 Sun Mar 31 20:55:30 2019

Tools Copyright (c) 2012-2017 Texas Instruments Incorporated
pru1_buslatches.asm                                                  PAGE   47

    2515        .dwattr $C$DW$153, DW_AT_name("PMAO")
    2516        .dwattr $C$DW$153, DW_AT_TI_symbol_name("PMAO")
    2517        .dwattr $C$DW$153, DW_AT_data_member_location[DW_OP_plus_uconst 0x0]
    2518        .dwattr $C$DW$153, DW_AT_accessibility(DW_ACCESS_public)
    2519        .dwattr $C$DW$153, DW_AT_decl_file("/home/joerg/retrocmp/dec/UniBone/91_3rd_party/pru-c-compil
    2520        .dwattr $C$DW$153, DW_AT_decl_line(0xc1)
    2521        .dwattr $C$DW$153, DW_AT_decl_column(0x15)
    2522
    2523$C$DW$154       .dwtag  DW_TAG_member
    2524        .dwattr $C$DW$154, DW_AT_type(*$C$DW$T$58)
    2525        .dwattr $C$DW$154, DW_AT_name("PMAO_bit")
    2526        .dwattr $C$DW$154, DW_AT_TI_symbol_name("PMAO_bit")
    2527        .dwattr $C$DW$154, DW_AT_data_member_location[DW_OP_plus_uconst 0x0]
    2528        .dwattr $C$DW$154, DW_AT_accessibility(DW_ACCESS_public)
    2529        .dwattr $C$DW$154, DW_AT_decl_file("/home/joerg/retrocmp/dec/UniBone/91_3rd_party/pru-c-compil
    2530        .dwattr $C$DW$154, DW_AT_decl_line(0xc7)
    2531        .dwattr $C$DW$154, DW_AT_decl_column(0x05)
    2532
    2533        .dwattr $C$DW$T$59, DW_AT_decl_file("/home/joerg/retrocmp/dec/UniBone/91_3rd_party/pru-c-compi
    2534        .dwattr $C$DW$T$59, DW_AT_decl_line(0xc0)
    2535        .dwattr $C$DW$T$59, DW_AT_decl_column(0x08)
    2536        .dwendtag $C$DW$T$59
    2537
    2538
    2539$C$DW$T$61      .dwtag  DW_TAG_union_type
    2540        .dwattr $C$DW$T$61, DW_AT_byte_size(0x04)
    2541$C$DW$155       .dwtag  DW_TAG_member
    2542        .dwattr $C$DW$155, DW_AT_type(*$C$DW$T$39)
    2543        .dwattr $C$DW$155, DW_AT_name("IEPCLK")
    2544        .dwattr $C$DW$155, DW_AT_TI_symbol_name("IEPCLK")
    2545        .dwattr $C$DW$155, DW_AT_data_member_location[DW_OP_plus_uconst 0x0]
    2546        .dwattr $C$DW$155, DW_AT_accessibility(DW_ACCESS_public)
    2547        .dwattr $C$DW$155, DW_AT_decl_file("/home/joerg/retrocmp/dec/UniBone/91_3rd_party/pru-c-compil
    2548        .dwattr $C$DW$155, DW_AT_decl_line(0xd0)
    2549        .dwattr $C$DW$155, DW_AT_decl_column(0x15)
    2550
    2551$C$DW$156       .dwtag  DW_TAG_member
    2552        .dwattr $C$DW$156, DW_AT_type(*$C$DW$T$60)
    2553        .dwattr $C$DW$156, DW_AT_name("IEPCLK_bit")
    2554        .dwattr $C$DW$156, DW_AT_TI_symbol_name("IEPCLK_bit")
    2555        .dwattr $C$DW$156, DW_AT_data_member_location[DW_OP_plus_uconst 0x0]
    2556        .dwattr $C$DW$156, DW_AT_accessibility(DW_ACCESS_public)
    2557        .dwattr $C$DW$156, DW_AT_decl_file("/home/joerg/retrocmp/dec/UniBone/91_3rd_party/pru-c-compil
    2558        .dwattr $C$DW$156, DW_AT_decl_line(0xd5)
    2559        .dwattr $C$DW$156, DW_AT_decl_column(0x05)
    2560
    2561        .dwattr $C$DW$T$61, DW_AT_decl_file("/home/joerg/retrocmp/dec/UniBone/91_3rd_party/pru-c-compi
    2562        .dwattr $C$DW$T$61, DW_AT_decl_line(0xcf)
    2563        .dwattr $C$DW$T$61, DW_AT_decl_column(0x08)
    2564        .dwendtag $C$DW$T$61
    2565
    2566
    2567$C$DW$T$63      .dwtag  DW_TAG_union_type
    2568        .dwattr $C$DW$T$63, DW_AT_byte_size(0x04)
    2569$C$DW$157       .dwtag  DW_TAG_member
PRU Assembler Unix v2.3.1 Sun Mar 31 20:55:30 2019

Tools Copyright (c) 2012-2017 Texas Instruments Incorporated
pru1_buslatches.asm                                                  PAGE   48

    2570        .dwattr $C$DW$157, DW_AT_type(*$C$DW$T$39)
    2571        .dwattr $C$DW$157, DW_AT_name("SPP")
    2572        .dwattr $C$DW$157, DW_AT_TI_symbol_name("SPP")
    2573        .dwattr $C$DW$157, DW_AT_data_member_location[DW_OP_plus_uconst 0x0]
    2574        .dwattr $C$DW$157, DW_AT_accessibility(DW_ACCESS_public)
    2575        .dwattr $C$DW$157, DW_AT_decl_file("/home/joerg/retrocmp/dec/UniBone/91_3rd_party/pru-c-compil
    2576        .dwattr $C$DW$157, DW_AT_decl_line(0xdb)
    2577        .dwattr $C$DW$157, DW_AT_decl_column(0x15)
    2578
    2579$C$DW$158       .dwtag  DW_TAG_member
    2580        .dwattr $C$DW$158, DW_AT_type(*$C$DW$T$62)
    2581        .dwattr $C$DW$158, DW_AT_name("SPP_bit")
    2582        .dwattr $C$DW$158, DW_AT_TI_symbol_name("SPP_bit")
    2583        .dwattr $C$DW$158, DW_AT_data_member_location[DW_OP_plus_uconst 0x0]
    2584        .dwattr $C$DW$158, DW_AT_accessibility(DW_ACCESS_public)
    2585        .dwattr $C$DW$158, DW_AT_decl_file("/home/joerg/retrocmp/dec/UniBone/91_3rd_party/pru-c-compil
    2586        .dwattr $C$DW$158, DW_AT_decl_line(0xe1)
    2587        .dwattr $C$DW$158, DW_AT_decl_column(0x05)
    2588
    2589        .dwattr $C$DW$T$63, DW_AT_decl_file("/home/joerg/retrocmp/dec/UniBone/91_3rd_party/pru-c-compi
    2590        .dwattr $C$DW$T$63, DW_AT_decl_line(0xda)
    2591        .dwattr $C$DW$T$63, DW_AT_decl_column(0x08)
    2592        .dwendtag $C$DW$T$63
    2593
    2594
    2595$C$DW$T$65      .dwtag  DW_TAG_union_type
    2596        .dwattr $C$DW$T$65, DW_AT_byte_size(0x04)
    2597$C$DW$159       .dwtag  DW_TAG_member
    2598        .dwattr $C$DW$159, DW_AT_type(*$C$DW$T$39)
    2599        .dwattr $C$DW$159, DW_AT_name("PIN_MX")
    2600        .dwattr $C$DW$159, DW_AT_TI_symbol_name("PIN_MX")
    2601        .dwattr $C$DW$159, DW_AT_data_member_location[DW_OP_plus_uconst 0x0]
    2602        .dwattr $C$DW$159, DW_AT_accessibility(DW_ACCESS_public)
    2603        .dwattr $C$DW$159, DW_AT_decl_file("/home/joerg/retrocmp/dec/UniBone/91_3rd_party/pru-c-compil
    2604        .dwattr $C$DW$159, DW_AT_decl_line(0xe9)
    2605        .dwattr $C$DW$159, DW_AT_decl_column(0x15)
    2606
    2607$C$DW$160       .dwtag  DW_TAG_member
    2608        .dwattr $C$DW$160, DW_AT_type(*$C$DW$T$64)
    2609        .dwattr $C$DW$160, DW_AT_name("PIN_MX_bit")
    2610        .dwattr $C$DW$160, DW_AT_TI_symbol_name("PIN_MX_bit")
    2611        .dwattr $C$DW$160, DW_AT_data_member_location[DW_OP_plus_uconst 0x0]
    2612        .dwattr $C$DW$160, DW_AT_accessibility(DW_ACCESS_public)
    2613        .dwattr $C$DW$160, DW_AT_decl_file("/home/joerg/retrocmp/dec/UniBone/91_3rd_party/pru-c-compil
    2614        .dwattr $C$DW$160, DW_AT_decl_line(0xee)
    2615        .dwattr $C$DW$160, DW_AT_decl_column(0x05)
    2616
    2617        .dwattr $C$DW$T$65, DW_AT_decl_file("/home/joerg/retrocmp/dec/UniBone/91_3rd_party/pru-c-compi
    2618        .dwattr $C$DW$T$65, DW_AT_decl_line(0xe8)
    2619        .dwattr $C$DW$T$65, DW_AT_decl_column(0x08)
    2620        .dwendtag $C$DW$T$65
    2621
    2622$C$DW$T$2       .dwtag  DW_TAG_unspecified_type
    2623        .dwattr $C$DW$T$2, DW_AT_name("void")
    2624
PRU Assembler Unix v2.3.1 Sun Mar 31 20:55:30 2019

Tools Copyright (c) 2012-2017 Texas Instruments Incorporated
pru1_buslatches.asm                                                  PAGE   49

    2625$C$DW$T$4       .dwtag  DW_TAG_base_type
    2626        .dwattr $C$DW$T$4, DW_AT_encoding(DW_ATE_boolean)
    2627        .dwattr $C$DW$T$4, DW_AT_name("bool")
    2628        .dwattr $C$DW$T$4, DW_AT_byte_size(0x01)
    2629
    2630$C$DW$T$5       .dwtag  DW_TAG_base_type
    2631        .dwattr $C$DW$T$5, DW_AT_encoding(DW_ATE_signed_char)
    2632        .dwattr $C$DW$T$5, DW_AT_name("signed char")
    2633        .dwattr $C$DW$T$5, DW_AT_byte_size(0x01)
    2634
    2635$C$DW$T$6       .dwtag  DW_TAG_base_type
    2636        .dwattr $C$DW$T$6, DW_AT_encoding(DW_ATE_unsigned_char)
    2637        .dwattr $C$DW$T$6, DW_AT_name("unsigned char")
    2638        .dwattr $C$DW$T$6, DW_AT_byte_size(0x01)
    2639
    2640$C$DW$T$78      .dwtag  DW_TAG_pointer_type
    2641        .dwattr $C$DW$T$78, DW_AT_type(*$C$DW$T$6)
    2642        .dwattr $C$DW$T$78, DW_AT_address_class(0x20)
    2643
    2644$C$DW$T$36      .dwtag  DW_TAG_typedef
    2645        .dwattr $C$DW$T$36, DW_AT_name("uint8_t")
    2646        .dwattr $C$DW$T$36, DW_AT_type(*$C$DW$T$6)
    2647        .dwattr $C$DW$T$36, DW_AT_language(DW_LANG_C)
    2648        .dwattr $C$DW$T$36, DW_AT_decl_file("/home/joerg/retrocmp/dec/UniBone/91_3rd_party/pru-c-compi
    2649        .dwattr $C$DW$T$36, DW_AT_decl_line(0x3d)
    2650        .dwattr $C$DW$T$36, DW_AT_decl_column(0x1c)
    2651
    2652
    2653$C$DW$T$37      .dwtag  DW_TAG_array_type
    2654        .dwattr $C$DW$T$37, DW_AT_type(*$C$DW$T$36)
    2655        .dwattr $C$DW$T$37, DW_AT_language(DW_LANG_C)
    2656        .dwattr $C$DW$T$37, DW_AT_byte_size(0x08)
    2657$C$DW$161       .dwtag  DW_TAG_subrange_type
    2658        .dwattr $C$DW$161, DW_AT_upper_bound(0x07)
    2659
    2660        .dwendtag $C$DW$T$37
    2661
    2662$C$DW$T$7       .dwtag  DW_TAG_base_type
    2663        .dwattr $C$DW$T$7, DW_AT_encoding(DW_ATE_signed_char)
    2664        .dwattr $C$DW$T$7, DW_AT_name("wchar_t")
    2665        .dwattr $C$DW$T$7, DW_AT_byte_size(0x04)
    2666
    2667$C$DW$T$8       .dwtag  DW_TAG_base_type
    2668        .dwattr $C$DW$T$8, DW_AT_encoding(DW_ATE_signed)
    2669        .dwattr $C$DW$T$8, DW_AT_name("short")
    2670        .dwattr $C$DW$T$8, DW_AT_byte_size(0x02)
    2671
    2672$C$DW$T$9       .dwtag  DW_TAG_base_type
    2673        .dwattr $C$DW$T$9, DW_AT_encoding(DW_ATE_unsigned)
    2674        .dwattr $C$DW$T$9, DW_AT_name("unsigned short")
    2675        .dwattr $C$DW$T$9, DW_AT_byte_size(0x02)
    2676
    2677$C$DW$T$10      .dwtag  DW_TAG_base_type
    2678        .dwattr $C$DW$T$10, DW_AT_encoding(DW_ATE_signed)
    2679        .dwattr $C$DW$T$10, DW_AT_name("int")
PRU Assembler Unix v2.3.1 Sun Mar 31 20:55:30 2019

Tools Copyright (c) 2012-2017 Texas Instruments Incorporated
pru1_buslatches.asm                                                  PAGE   50

    2680        .dwattr $C$DW$T$10, DW_AT_byte_size(0x04)
    2681
    2682$C$DW$T$11      .dwtag  DW_TAG_base_type
    2683        .dwattr $C$DW$T$11, DW_AT_encoding(DW_ATE_unsigned)
    2684        .dwattr $C$DW$T$11, DW_AT_name("unsigned int")
    2685        .dwattr $C$DW$T$11, DW_AT_byte_size(0x04)
    2686
    2687$C$DW$T$32      .dwtag  DW_TAG_typedef
    2688        .dwattr $C$DW$T$32, DW_AT_name("uint32_t")
    2689        .dwattr $C$DW$T$32, DW_AT_type(*$C$DW$T$11)
    2690        .dwattr $C$DW$T$32, DW_AT_language(DW_LANG_C)
    2691        .dwattr $C$DW$T$32, DW_AT_decl_file("/home/joerg/retrocmp/dec/UniBone/91_3rd_party/pru-c-compi
    2692        .dwattr $C$DW$T$32, DW_AT_decl_line(0x41)
    2693        .dwattr $C$DW$T$32, DW_AT_decl_column(0x1c)
    2694
    2695
    2696$C$DW$T$33      .dwtag  DW_TAG_array_type
    2697        .dwattr $C$DW$T$33, DW_AT_type(*$C$DW$T$32)
    2698        .dwattr $C$DW$T$33, DW_AT_language(DW_LANG_C)
    2699        .dwattr $C$DW$T$33, DW_AT_byte_size(0x04)
    2700$C$DW$162       .dwtag  DW_TAG_subrange_type
    2701        .dwattr $C$DW$162, DW_AT_upper_bound(0x00)
    2702
    2703        .dwendtag $C$DW$T$33
    2704
    2705
    2706$C$DW$T$34      .dwtag  DW_TAG_array_type
    2707        .dwattr $C$DW$T$34, DW_AT_type(*$C$DW$T$32)
    2708        .dwattr $C$DW$T$34, DW_AT_language(DW_LANG_C)
    2709        .dwattr $C$DW$T$34, DW_AT_byte_size(0x08)
    2710$C$DW$163       .dwtag  DW_TAG_subrange_type
    2711        .dwattr $C$DW$163, DW_AT_upper_bound(0x01)
    2712
    2713        .dwendtag $C$DW$T$34
    2714
    2715$C$DW$T$39      .dwtag  DW_TAG_volatile_type
    2716        .dwattr $C$DW$T$39, DW_AT_type(*$C$DW$T$32)
    2717
    2718$C$DW$T$12      .dwtag  DW_TAG_base_type
    2719        .dwattr $C$DW$T$12, DW_AT_encoding(DW_ATE_signed)
    2720        .dwattr $C$DW$T$12, DW_AT_name("long")
    2721        .dwattr $C$DW$T$12, DW_AT_byte_size(0x04)
    2722
    2723$C$DW$T$13      .dwtag  DW_TAG_base_type
    2724        .dwattr $C$DW$T$13, DW_AT_encoding(DW_ATE_unsigned)
    2725        .dwattr $C$DW$T$13, DW_AT_name("unsigned long")
    2726        .dwattr $C$DW$T$13, DW_AT_byte_size(0x04)
    2727
    2728$C$DW$T$14      .dwtag  DW_TAG_base_type
    2729        .dwattr $C$DW$T$14, DW_AT_encoding(DW_ATE_signed)
    2730        .dwattr $C$DW$T$14, DW_AT_name("long long")
    2731        .dwattr $C$DW$T$14, DW_AT_byte_size(0x08)
    2732
    2733$C$DW$T$15      .dwtag  DW_TAG_base_type
    2734        .dwattr $C$DW$T$15, DW_AT_encoding(DW_ATE_unsigned)
PRU Assembler Unix v2.3.1 Sun Mar 31 20:55:30 2019

Tools Copyright (c) 2012-2017 Texas Instruments Incorporated
pru1_buslatches.asm                                                  PAGE   51

    2735        .dwattr $C$DW$T$15, DW_AT_name("unsigned long long")
    2736        .dwattr $C$DW$T$15, DW_AT_byte_size(0x08)
    2737
    2738$C$DW$T$16      .dwtag  DW_TAG_base_type
    2739        .dwattr $C$DW$T$16, DW_AT_encoding(DW_ATE_float)
    2740        .dwattr $C$DW$T$16, DW_AT_name("float")
    2741        .dwattr $C$DW$T$16, DW_AT_byte_size(0x04)
    2742
    2743$C$DW$T$17      .dwtag  DW_TAG_base_type
    2744        .dwattr $C$DW$T$17, DW_AT_encoding(DW_ATE_float)
    2745        .dwattr $C$DW$T$17, DW_AT_name("double")
    2746        .dwattr $C$DW$T$17, DW_AT_byte_size(0x08)
    2747
    2748$C$DW$T$18      .dwtag  DW_TAG_base_type
    2749        .dwattr $C$DW$T$18, DW_AT_encoding(DW_ATE_float)
    2750        .dwattr $C$DW$T$18, DW_AT_name("long double")
    2751        .dwattr $C$DW$T$18, DW_AT_byte_size(0x08)
    2752
    2753        .dwattr $C$DW$CU, DW_AT_language(DW_LANG_C)
    2754
    2755;***************************************************************
    2756;* DWARF CIE ENTRIES                                           *
    2757;***************************************************************
    2758
    2759$C$DW$CIE       .dwcie 14
    2760        .dwcfi  cfa_register, 8
    2761        .dwcfi  cfa_offset, 0
    2762        .dwcfi  same_value, 8
    2763        .dwcfi  same_value, 9
    2764        .dwcfi  same_value, 10
    2765        .dwcfi  same_value, 11
    2766        .dwcfi  same_value, 16
    2767        .dwcfi  same_value, 17
    2768        .dwcfi  same_value, 18
    2769        .dwcfi  same_value, 19
    2770        .dwcfi  same_value, 20
    2771        .dwcfi  same_value, 21
    2772        .dwcfi  same_value, 22
    2773        .dwcfi  same_value, 23
    2774        .dwcfi  same_value, 24
    2775        .dwcfi  same_value, 25
    2776        .dwcfi  same_value, 26
    2777        .dwcfi  same_value, 27
    2778        .dwcfi  same_value, 28
    2779        .dwcfi  same_value, 29
    2780        .dwcfi  same_value, 30
    2781        .dwcfi  same_value, 31
    2782        .dwcfi  same_value, 32
    2783        .dwcfi  same_value, 33
    2784        .dwcfi  same_value, 34
    2785        .dwcfi  same_value, 35
    2786        .dwcfi  same_value, 36
    2787        .dwcfi  same_value, 37
    2788        .dwcfi  same_value, 38
    2789        .dwcfi  same_value, 39
PRU Assembler Unix v2.3.1 Sun Mar 31 20:55:30 2019

Tools Copyright (c) 2012-2017 Texas Instruments Incorporated
pru1_buslatches.asm                                                  PAGE   52

    2790        .dwcfi  same_value, 40
    2791        .dwcfi  same_value, 41
    2792        .dwcfi  same_value, 42
    2793        .dwcfi  same_value, 43
    2794        .dwcfi  same_value, 44
    2795        .dwcfi  same_value, 45
    2796        .dwcfi  same_value, 46
    2797        .dwcfi  same_value, 47
    2798        .dwcfi  same_value, 48
    2799        .dwcfi  same_value, 49
    2800        .dwcfi  same_value, 50
    2801        .dwcfi  same_value, 51
    2802        .dwcfi  same_value, 52
    2803        .dwcfi  same_value, 53
    2804        .dwcfi  same_value, 54
    2805        .dwcfi  same_value, 55
    2806        .dwendentry
    2807
    2808;***************************************************************
    2809;* DWARF REGISTER MAP                                          *
    2810;***************************************************************
    2811
    2812$C$DW$164       .dwtag  DW_TAG_TI_assign_register
    2813        .dwattr $C$DW$164, DW_AT_name("R0_b0")
    2814        .dwattr $C$DW$164, DW_AT_location[DW_OP_reg0]
    2815
    2816$C$DW$165       .dwtag  DW_TAG_TI_assign_register
    2817        .dwattr $C$DW$165, DW_AT_name("R0_b1")
    2818        .dwattr $C$DW$165, DW_AT_location[DW_OP_reg1]
    2819
    2820$C$DW$166       .dwtag  DW_TAG_TI_assign_register
    2821        .dwattr $C$DW$166, DW_AT_name("R0_b2")
    2822        .dwattr $C$DW$166, DW_AT_location[DW_OP_reg2]
    2823
    2824$C$DW$167       .dwtag  DW_TAG_TI_assign_register
    2825        .dwattr $C$DW$167, DW_AT_name("R0_b3")
    2826        .dwattr $C$DW$167, DW_AT_location[DW_OP_reg3]
    2827
    2828$C$DW$168       .dwtag  DW_TAG_TI_assign_register
    2829        .dwattr $C$DW$168, DW_AT_name("R1_b0")
    2830        .dwattr $C$DW$168, DW_AT_location[DW_OP_reg4]
    2831
    2832$C$DW$169       .dwtag  DW_TAG_TI_assign_register
    2833        .dwattr $C$DW$169, DW_AT_name("R1_b1")
    2834        .dwattr $C$DW$169, DW_AT_location[DW_OP_reg5]
    2835
    2836$C$DW$170       .dwtag  DW_TAG_TI_assign_register
    2837        .dwattr $C$DW$170, DW_AT_name("R1_b2")
    2838        .dwattr $C$DW$170, DW_AT_location[DW_OP_reg6]
    2839
    2840$C$DW$171       .dwtag  DW_TAG_TI_assign_register
    2841        .dwattr $C$DW$171, DW_AT_name("R1_b3")
    2842        .dwattr $C$DW$171, DW_AT_location[DW_OP_reg7]
    2843
    2844$C$DW$172       .dwtag  DW_TAG_TI_assign_register
PRU Assembler Unix v2.3.1 Sun Mar 31 20:55:30 2019

Tools Copyright (c) 2012-2017 Texas Instruments Incorporated
pru1_buslatches.asm                                                  PAGE   53

    2845        .dwattr $C$DW$172, DW_AT_name("R2_b0")
    2846        .dwattr $C$DW$172, DW_AT_location[DW_OP_reg8]
    2847
    2848$C$DW$173       .dwtag  DW_TAG_TI_assign_register
    2849        .dwattr $C$DW$173, DW_AT_name("R2_b1")
    2850        .dwattr $C$DW$173, DW_AT_location[DW_OP_reg9]
    2851
    2852$C$DW$174       .dwtag  DW_TAG_TI_assign_register
    2853        .dwattr $C$DW$174, DW_AT_name("R2_b2")
    2854        .dwattr $C$DW$174, DW_AT_location[DW_OP_reg10]
    2855
    2856$C$DW$175       .dwtag  DW_TAG_TI_assign_register
    2857        .dwattr $C$DW$175, DW_AT_name("R2_b3")
    2858        .dwattr $C$DW$175, DW_AT_location[DW_OP_reg11]
    2859
    2860$C$DW$176       .dwtag  DW_TAG_TI_assign_register
    2861        .dwattr $C$DW$176, DW_AT_name("R3_b0")
    2862        .dwattr $C$DW$176, DW_AT_location[DW_OP_reg12]
    2863
    2864$C$DW$177       .dwtag  DW_TAG_TI_assign_register
    2865        .dwattr $C$DW$177, DW_AT_name("R3_b1")
    2866        .dwattr $C$DW$177, DW_AT_location[DW_OP_reg13]
    2867
    2868$C$DW$178       .dwtag  DW_TAG_TI_assign_register
    2869        .dwattr $C$DW$178, DW_AT_name("R3_b2")
    2870        .dwattr $C$DW$178, DW_AT_location[DW_OP_reg14]
    2871
    2872$C$DW$179       .dwtag  DW_TAG_TI_assign_register
    2873        .dwattr $C$DW$179, DW_AT_name("R3_b3")
    2874        .dwattr $C$DW$179, DW_AT_location[DW_OP_reg15]
    2875
    2876$C$DW$180       .dwtag  DW_TAG_TI_assign_register
    2877        .dwattr $C$DW$180, DW_AT_name("R4_b0")
    2878        .dwattr $C$DW$180, DW_AT_location[DW_OP_reg16]
    2879
    2880$C$DW$181       .dwtag  DW_TAG_TI_assign_register
    2881        .dwattr $C$DW$181, DW_AT_name("R4_b1")
    2882        .dwattr $C$DW$181, DW_AT_location[DW_OP_reg17]
    2883
    2884$C$DW$182       .dwtag  DW_TAG_TI_assign_register
    2885        .dwattr $C$DW$182, DW_AT_name("R4_b2")
    2886        .dwattr $C$DW$182, DW_AT_location[DW_OP_reg18]
    2887
    2888$C$DW$183       .dwtag  DW_TAG_TI_assign_register
    2889        .dwattr $C$DW$183, DW_AT_name("R4_b3")
    2890        .dwattr $C$DW$183, DW_AT_location[DW_OP_reg19]
    2891
    2892$C$DW$184       .dwtag  DW_TAG_TI_assign_register
    2893        .dwattr $C$DW$184, DW_AT_name("R5_b0")
    2894        .dwattr $C$DW$184, DW_AT_location[DW_OP_reg20]
    2895
    2896$C$DW$185       .dwtag  DW_TAG_TI_assign_register
    2897        .dwattr $C$DW$185, DW_AT_name("R5_b1")
    2898        .dwattr $C$DW$185, DW_AT_location[DW_OP_reg21]
    2899
PRU Assembler Unix v2.3.1 Sun Mar 31 20:55:30 2019

Tools Copyright (c) 2012-2017 Texas Instruments Incorporated
pru1_buslatches.asm                                                  PAGE   54

    2900$C$DW$186       .dwtag  DW_TAG_TI_assign_register
    2901        .dwattr $C$DW$186, DW_AT_name("R5_b2")
    2902        .dwattr $C$DW$186, DW_AT_location[DW_OP_reg22]
    2903
    2904$C$DW$187       .dwtag  DW_TAG_TI_assign_register
    2905        .dwattr $C$DW$187, DW_AT_name("R5_b3")
    2906        .dwattr $C$DW$187, DW_AT_location[DW_OP_reg23]
    2907
    2908$C$DW$188       .dwtag  DW_TAG_TI_assign_register
    2909        .dwattr $C$DW$188, DW_AT_name("R6_b0")
    2910        .dwattr $C$DW$188, DW_AT_location[DW_OP_reg24]
    2911
    2912$C$DW$189       .dwtag  DW_TAG_TI_assign_register
    2913        .dwattr $C$DW$189, DW_AT_name("R6_b1")
    2914        .dwattr $C$DW$189, DW_AT_location[DW_OP_reg25]
    2915
    2916$C$DW$190       .dwtag  DW_TAG_TI_assign_register
    2917        .dwattr $C$DW$190, DW_AT_name("R6_b2")
    2918        .dwattr $C$DW$190, DW_AT_location[DW_OP_reg26]
    2919
    2920$C$DW$191       .dwtag  DW_TAG_TI_assign_register
    2921        .dwattr $C$DW$191, DW_AT_name("R6_b3")
    2922        .dwattr $C$DW$191, DW_AT_location[DW_OP_reg27]
    2923
    2924$C$DW$192       .dwtag  DW_TAG_TI_assign_register
    2925        .dwattr $C$DW$192, DW_AT_name("R7_b0")
    2926        .dwattr $C$DW$192, DW_AT_location[DW_OP_reg28]
    2927
    2928$C$DW$193       .dwtag  DW_TAG_TI_assign_register
    2929        .dwattr $C$DW$193, DW_AT_name("R7_b1")
    2930        .dwattr $C$DW$193, DW_AT_location[DW_OP_reg29]
    2931
    2932$C$DW$194       .dwtag  DW_TAG_TI_assign_register
    2933        .dwattr $C$DW$194, DW_AT_name("R7_b2")
    2934        .dwattr $C$DW$194, DW_AT_location[DW_OP_reg30]
    2935
    2936$C$DW$195       .dwtag  DW_TAG_TI_assign_register
    2937        .dwattr $C$DW$195, DW_AT_name("R7_b3")
    2938        .dwattr $C$DW$195, DW_AT_location[DW_OP_reg31]
    2939
    2940$C$DW$196       .dwtag  DW_TAG_TI_assign_register
    2941        .dwattr $C$DW$196, DW_AT_name("R8_b0")
    2942        .dwattr $C$DW$196, DW_AT_location[DW_OP_regx 0x20]
    2943
    2944$C$DW$197       .dwtag  DW_TAG_TI_assign_register
    2945        .dwattr $C$DW$197, DW_AT_name("R8_b1")
    2946        .dwattr $C$DW$197, DW_AT_location[DW_OP_regx 0x21]
    2947
    2948$C$DW$198       .dwtag  DW_TAG_TI_assign_register
    2949        .dwattr $C$DW$198, DW_AT_name("R8_b2")
    2950        .dwattr $C$DW$198, DW_AT_location[DW_OP_regx 0x22]
    2951
    2952$C$DW$199       .dwtag  DW_TAG_TI_assign_register
    2953        .dwattr $C$DW$199, DW_AT_name("R8_b3")
    2954        .dwattr $C$DW$199, DW_AT_location[DW_OP_regx 0x23]
PRU Assembler Unix v2.3.1 Sun Mar 31 20:55:30 2019

Tools Copyright (c) 2012-2017 Texas Instruments Incorporated
pru1_buslatches.asm                                                  PAGE   55

    2955
    2956$C$DW$200       .dwtag  DW_TAG_TI_assign_register
    2957        .dwattr $C$DW$200, DW_AT_name("R9_b0")
    2958        .dwattr $C$DW$200, DW_AT_location[DW_OP_regx 0x24]
    2959
    2960$C$DW$201       .dwtag  DW_TAG_TI_assign_register
    2961        .dwattr $C$DW$201, DW_AT_name("R9_b1")
    2962        .dwattr $C$DW$201, DW_AT_location[DW_OP_regx 0x25]
    2963
    2964$C$DW$202       .dwtag  DW_TAG_TI_assign_register
    2965        .dwattr $C$DW$202, DW_AT_name("R9_b2")
    2966        .dwattr $C$DW$202, DW_AT_location[DW_OP_regx 0x26]
    2967
    2968$C$DW$203       .dwtag  DW_TAG_TI_assign_register
    2969        .dwattr $C$DW$203, DW_AT_name("R9_b3")
    2970        .dwattr $C$DW$203, DW_AT_location[DW_OP_regx 0x27]
    2971
    2972$C$DW$204       .dwtag  DW_TAG_TI_assign_register
    2973        .dwattr $C$DW$204, DW_AT_name("R10_b0")
    2974        .dwattr $C$DW$204, DW_AT_location[DW_OP_regx 0x28]
    2975
    2976$C$DW$205       .dwtag  DW_TAG_TI_assign_register
    2977        .dwattr $C$DW$205, DW_AT_name("R10_b1")
    2978        .dwattr $C$DW$205, DW_AT_location[DW_OP_regx 0x29]
    2979
    2980$C$DW$206       .dwtag  DW_TAG_TI_assign_register
    2981        .dwattr $C$DW$206, DW_AT_name("R10_b2")
    2982        .dwattr $C$DW$206, DW_AT_location[DW_OP_regx 0x2a]
    2983
    2984$C$DW$207       .dwtag  DW_TAG_TI_assign_register
    2985        .dwattr $C$DW$207, DW_AT_name("R10_b3")
    2986        .dwattr $C$DW$207, DW_AT_location[DW_OP_regx 0x2b]
    2987
    2988$C$DW$208       .dwtag  DW_TAG_TI_assign_register
    2989        .dwattr $C$DW$208, DW_AT_name("R11_b0")
    2990        .dwattr $C$DW$208, DW_AT_location[DW_OP_regx 0x2c]
    2991
    2992$C$DW$209       .dwtag  DW_TAG_TI_assign_register
    2993        .dwattr $C$DW$209, DW_AT_name("R11_b1")
    2994        .dwattr $C$DW$209, DW_AT_location[DW_OP_regx 0x2d]
    2995
    2996$C$DW$210       .dwtag  DW_TAG_TI_assign_register
    2997        .dwattr $C$DW$210, DW_AT_name("R11_b2")
    2998        .dwattr $C$DW$210, DW_AT_location[DW_OP_regx 0x2e]
    2999
    3000$C$DW$211       .dwtag  DW_TAG_TI_assign_register
    3001        .dwattr $C$DW$211, DW_AT_name("R11_b3")
    3002        .dwattr $C$DW$211, DW_AT_location[DW_OP_regx 0x2f]
    3003
    3004$C$DW$212       .dwtag  DW_TAG_TI_assign_register
    3005        .dwattr $C$DW$212, DW_AT_name("R12_b0")
    3006        .dwattr $C$DW$212, DW_AT_location[DW_OP_regx 0x30]
    3007
    3008$C$DW$213       .dwtag  DW_TAG_TI_assign_register
    3009        .dwattr $C$DW$213, DW_AT_name("R12_b1")
PRU Assembler Unix v2.3.1 Sun Mar 31 20:55:30 2019

Tools Copyright (c) 2012-2017 Texas Instruments Incorporated
pru1_buslatches.asm                                                  PAGE   56

    3010        .dwattr $C$DW$213, DW_AT_location[DW_OP_regx 0x31]
    3011
    3012$C$DW$214       .dwtag  DW_TAG_TI_assign_register
    3013        .dwattr $C$DW$214, DW_AT_name("R12_b2")
    3014        .dwattr $C$DW$214, DW_AT_location[DW_OP_regx 0x32]
    3015
    3016$C$DW$215       .dwtag  DW_TAG_TI_assign_register
    3017        .dwattr $C$DW$215, DW_AT_name("R12_b3")
    3018        .dwattr $C$DW$215, DW_AT_location[DW_OP_regx 0x33]
    3019
    3020$C$DW$216       .dwtag  DW_TAG_TI_assign_register
    3021        .dwattr $C$DW$216, DW_AT_name("R13_b0")
    3022        .dwattr $C$DW$216, DW_AT_location[DW_OP_regx 0x34]
    3023
    3024$C$DW$217       .dwtag  DW_TAG_TI_assign_register
    3025        .dwattr $C$DW$217, DW_AT_name("R13_b1")
    3026        .dwattr $C$DW$217, DW_AT_location[DW_OP_regx 0x35]
    3027
    3028$C$DW$218       .dwtag  DW_TAG_TI_assign_register
    3029        .dwattr $C$DW$218, DW_AT_name("R13_b2")
    3030        .dwattr $C$DW$218, DW_AT_location[DW_OP_regx 0x36]
    3031
    3032$C$DW$219       .dwtag  DW_TAG_TI_assign_register
    3033        .dwattr $C$DW$219, DW_AT_name("R13_b3")
    3034        .dwattr $C$DW$219, DW_AT_location[DW_OP_regx 0x37]
    3035
    3036$C$DW$220       .dwtag  DW_TAG_TI_assign_register
    3037        .dwattr $C$DW$220, DW_AT_name("R14_b0")
    3038        .dwattr $C$DW$220, DW_AT_location[DW_OP_regx 0x38]
    3039
    3040$C$DW$221       .dwtag  DW_TAG_TI_assign_register
    3041        .dwattr $C$DW$221, DW_AT_name("R14_b1")
    3042        .dwattr $C$DW$221, DW_AT_location[DW_OP_regx 0x39]
    3043
    3044$C$DW$222       .dwtag  DW_TAG_TI_assign_register
    3045        .dwattr $C$DW$222, DW_AT_name("R14_b2")
    3046        .dwattr $C$DW$222, DW_AT_location[DW_OP_regx 0x3a]
    3047
    3048$C$DW$223       .dwtag  DW_TAG_TI_assign_register
    3049        .dwattr $C$DW$223, DW_AT_name("R14_b3")
    3050        .dwattr $C$DW$223, DW_AT_location[DW_OP_regx 0x3b]
    3051
    3052$C$DW$224       .dwtag  DW_TAG_TI_assign_register
    3053        .dwattr $C$DW$224, DW_AT_name("R15_b0")
    3054        .dwattr $C$DW$224, DW_AT_location[DW_OP_regx 0x3c]
    3055
    3056$C$DW$225       .dwtag  DW_TAG_TI_assign_register
    3057        .dwattr $C$DW$225, DW_AT_name("R15_b1")
    3058        .dwattr $C$DW$225, DW_AT_location[DW_OP_regx 0x3d]
    3059
    3060$C$DW$226       .dwtag  DW_TAG_TI_assign_register
    3061        .dwattr $C$DW$226, DW_AT_name("R15_b2")
    3062        .dwattr $C$DW$226, DW_AT_location[DW_OP_regx 0x3e]
    3063
    3064$C$DW$227       .dwtag  DW_TAG_TI_assign_register
PRU Assembler Unix v2.3.1 Sun Mar 31 20:55:30 2019

Tools Copyright (c) 2012-2017 Texas Instruments Incorporated
pru1_buslatches.asm                                                  PAGE   57

    3065        .dwattr $C$DW$227, DW_AT_name("R15_b3")
    3066        .dwattr $C$DW$227, DW_AT_location[DW_OP_regx 0x3f]
    3067
    3068$C$DW$228       .dwtag  DW_TAG_TI_assign_register
    3069        .dwattr $C$DW$228, DW_AT_name("R16_b0")
    3070        .dwattr $C$DW$228, DW_AT_location[DW_OP_regx 0x40]
    3071
    3072$C$DW$229       .dwtag  DW_TAG_TI_assign_register
    3073        .dwattr $C$DW$229, DW_AT_name("R16_b1")
    3074        .dwattr $C$DW$229, DW_AT_location[DW_OP_regx 0x41]
    3075
    3076$C$DW$230       .dwtag  DW_TAG_TI_assign_register
    3077        .dwattr $C$DW$230, DW_AT_name("R16_b2")
    3078        .dwattr $C$DW$230, DW_AT_location[DW_OP_regx 0x42]
    3079
    3080$C$DW$231       .dwtag  DW_TAG_TI_assign_register
    3081        .dwattr $C$DW$231, DW_AT_name("R16_b3")
    3082        .dwattr $C$DW$231, DW_AT_location[DW_OP_regx 0x43]
    3083
    3084$C$DW$232       .dwtag  DW_TAG_TI_assign_register
    3085        .dwattr $C$DW$232, DW_AT_name("R17_b0")
    3086        .dwattr $C$DW$232, DW_AT_location[DW_OP_regx 0x44]
    3087
    3088$C$DW$233       .dwtag  DW_TAG_TI_assign_register
    3089        .dwattr $C$DW$233, DW_AT_name("R17_b1")
    3090        .dwattr $C$DW$233, DW_AT_location[DW_OP_regx 0x45]
    3091
    3092$C$DW$234       .dwtag  DW_TAG_TI_assign_register
    3093        .dwattr $C$DW$234, DW_AT_name("R17_b2")
    3094        .dwattr $C$DW$234, DW_AT_location[DW_OP_regx 0x46]
    3095
    3096$C$DW$235       .dwtag  DW_TAG_TI_assign_register
    3097        .dwattr $C$DW$235, DW_AT_name("R17_b3")
    3098        .dwattr $C$DW$235, DW_AT_location[DW_OP_regx 0x47]
    3099
    3100$C$DW$236       .dwtag  DW_TAG_TI_assign_register
    3101        .dwattr $C$DW$236, DW_AT_name("R18_b0")
    3102        .dwattr $C$DW$236, DW_AT_location[DW_OP_regx 0x48]
    3103
    3104$C$DW$237       .dwtag  DW_TAG_TI_assign_register
    3105        .dwattr $C$DW$237, DW_AT_name("R18_b1")
    3106        .dwattr $C$DW$237, DW_AT_location[DW_OP_regx 0x49]
    3107
    3108$C$DW$238       .dwtag  DW_TAG_TI_assign_register
    3109        .dwattr $C$DW$238, DW_AT_name("R18_b2")
    3110        .dwattr $C$DW$238, DW_AT_location[DW_OP_regx 0x4a]
    3111
    3112$C$DW$239       .dwtag  DW_TAG_TI_assign_register
    3113        .dwattr $C$DW$239, DW_AT_name("R18_b3")
    3114        .dwattr $C$DW$239, DW_AT_location[DW_OP_regx 0x4b]
    3115
    3116$C$DW$240       .dwtag  DW_TAG_TI_assign_register
    3117        .dwattr $C$DW$240, DW_AT_name("R19_b0")
    3118        .dwattr $C$DW$240, DW_AT_location[DW_OP_regx 0x4c]
    3119
PRU Assembler Unix v2.3.1 Sun Mar 31 20:55:30 2019

Tools Copyright (c) 2012-2017 Texas Instruments Incorporated
pru1_buslatches.asm                                                  PAGE   58

    3120$C$DW$241       .dwtag  DW_TAG_TI_assign_register
    3121        .dwattr $C$DW$241, DW_AT_name("R19_b1")
    3122        .dwattr $C$DW$241, DW_AT_location[DW_OP_regx 0x4d]
    3123
    3124$C$DW$242       .dwtag  DW_TAG_TI_assign_register
    3125        .dwattr $C$DW$242, DW_AT_name("R19_b2")
    3126        .dwattr $C$DW$242, DW_AT_location[DW_OP_regx 0x4e]
    3127
    3128$C$DW$243       .dwtag  DW_TAG_TI_assign_register
    3129        .dwattr $C$DW$243, DW_AT_name("R19_b3")
    3130        .dwattr $C$DW$243, DW_AT_location[DW_OP_regx 0x4f]
    3131
    3132$C$DW$244       .dwtag  DW_TAG_TI_assign_register
    3133        .dwattr $C$DW$244, DW_AT_name("R20_b0")
    3134        .dwattr $C$DW$244, DW_AT_location[DW_OP_regx 0x50]
    3135
    3136$C$DW$245       .dwtag  DW_TAG_TI_assign_register
    3137        .dwattr $C$DW$245, DW_AT_name("R20_b1")
    3138        .dwattr $C$DW$245, DW_AT_location[DW_OP_regx 0x51]
    3139
    3140$C$DW$246       .dwtag  DW_TAG_TI_assign_register
    3141        .dwattr $C$DW$246, DW_AT_name("R20_b2")
    3142        .dwattr $C$DW$246, DW_AT_location[DW_OP_regx 0x52]
    3143
    3144$C$DW$247       .dwtag  DW_TAG_TI_assign_register
    3145        .dwattr $C$DW$247, DW_AT_name("R20_b3")
    3146        .dwattr $C$DW$247, DW_AT_location[DW_OP_regx 0x53]
    3147
    3148$C$DW$248       .dwtag  DW_TAG_TI_assign_register
    3149        .dwattr $C$DW$248, DW_AT_name("R21_b0")
    3150        .dwattr $C$DW$248, DW_AT_location[DW_OP_regx 0x54]
    3151
    3152$C$DW$249       .dwtag  DW_TAG_TI_assign_register
    3153        .dwattr $C$DW$249, DW_AT_name("R21_b1")
    3154        .dwattr $C$DW$249, DW_AT_location[DW_OP_regx 0x55]
    3155
    3156$C$DW$250       .dwtag  DW_TAG_TI_assign_register
    3157        .dwattr $C$DW$250, DW_AT_name("R21_b2")
    3158        .dwattr $C$DW$250, DW_AT_location[DW_OP_regx 0x56]
    3159
    3160$C$DW$251       .dwtag  DW_TAG_TI_assign_register
    3161        .dwattr $C$DW$251, DW_AT_name("R21_b3")
    3162        .dwattr $C$DW$251, DW_AT_location[DW_OP_regx 0x57]
    3163
    3164$C$DW$252       .dwtag  DW_TAG_TI_assign_register
    3165        .dwattr $C$DW$252, DW_AT_name("R22_b0")
    3166        .dwattr $C$DW$252, DW_AT_location[DW_OP_regx 0x58]
    3167
    3168$C$DW$253       .dwtag  DW_TAG_TI_assign_register
    3169        .dwattr $C$DW$253, DW_AT_name("R22_b1")
    3170        .dwattr $C$DW$253, DW_AT_location[DW_OP_regx 0x59]
    3171
    3172$C$DW$254       .dwtag  DW_TAG_TI_assign_register
    3173        .dwattr $C$DW$254, DW_AT_name("R22_b2")
    3174        .dwattr $C$DW$254, DW_AT_location[DW_OP_regx 0x5a]
PRU Assembler Unix v2.3.1 Sun Mar 31 20:55:30 2019

Tools Copyright (c) 2012-2017 Texas Instruments Incorporated
pru1_buslatches.asm                                                  PAGE   59

    3175
    3176$C$DW$255       .dwtag  DW_TAG_TI_assign_register
    3177        .dwattr $C$DW$255, DW_AT_name("R22_b3")
    3178        .dwattr $C$DW$255, DW_AT_location[DW_OP_regx 0x5b]
    3179
    3180$C$DW$256       .dwtag  DW_TAG_TI_assign_register
    3181        .dwattr $C$DW$256, DW_AT_name("R23_b0")
    3182        .dwattr $C$DW$256, DW_AT_location[DW_OP_regx 0x5c]
    3183
    3184$C$DW$257       .dwtag  DW_TAG_TI_assign_register
    3185        .dwattr $C$DW$257, DW_AT_name("R23_b1")
    3186        .dwattr $C$DW$257, DW_AT_location[DW_OP_regx 0x5d]
    3187
    3188$C$DW$258       .dwtag  DW_TAG_TI_assign_register
    3189        .dwattr $C$DW$258, DW_AT_name("R23_b2")
    3190        .dwattr $C$DW$258, DW_AT_location[DW_OP_regx 0x5e]
    3191
    3192$C$DW$259       .dwtag  DW_TAG_TI_assign_register
    3193        .dwattr $C$DW$259, DW_AT_name("R23_b3")
    3194        .dwattr $C$DW$259, DW_AT_location[DW_OP_regx 0x5f]
    3195
    3196$C$DW$260       .dwtag  DW_TAG_TI_assign_register
    3197        .dwattr $C$DW$260, DW_AT_name("R24_b0")
    3198        .dwattr $C$DW$260, DW_AT_location[DW_OP_regx 0x60]
    3199
    3200$C$DW$261       .dwtag  DW_TAG_TI_assign_register
    3201        .dwattr $C$DW$261, DW_AT_name("R24_b1")
    3202        .dwattr $C$DW$261, DW_AT_location[DW_OP_regx 0x61]
    3203
    3204$C$DW$262       .dwtag  DW_TAG_TI_assign_register
    3205        .dwattr $C$DW$262, DW_AT_name("R24_b2")
    3206        .dwattr $C$DW$262, DW_AT_location[DW_OP_regx 0x62]
    3207
    3208$C$DW$263       .dwtag  DW_TAG_TI_assign_register
    3209        .dwattr $C$DW$263, DW_AT_name("R24_b3")
    3210        .dwattr $C$DW$263, DW_AT_location[DW_OP_regx 0x63]
    3211
    3212$C$DW$264       .dwtag  DW_TAG_TI_assign_register
    3213        .dwattr $C$DW$264, DW_AT_name("R25_b0")
    3214        .dwattr $C$DW$264, DW_AT_location[DW_OP_regx 0x64]
    3215
    3216$C$DW$265       .dwtag  DW_TAG_TI_assign_register
    3217        .dwattr $C$DW$265, DW_AT_name("R25_b1")
    3218        .dwattr $C$DW$265, DW_AT_location[DW_OP_regx 0x65]
    3219
    3220$C$DW$266       .dwtag  DW_TAG_TI_assign_register
    3221        .dwattr $C$DW$266, DW_AT_name("R25_b2")
    3222        .dwattr $C$DW$266, DW_AT_location[DW_OP_regx 0x66]
    3223
    3224$C$DW$267       .dwtag  DW_TAG_TI_assign_register
    3225        .dwattr $C$DW$267, DW_AT_name("R25_b3")
    3226        .dwattr $C$DW$267, DW_AT_location[DW_OP_regx 0x67]
    3227
    3228$C$DW$268       .dwtag  DW_TAG_TI_assign_register
    3229        .dwattr $C$DW$268, DW_AT_name("R26_b0")
PRU Assembler Unix v2.3.1 Sun Mar 31 20:55:30 2019

Tools Copyright (c) 2012-2017 Texas Instruments Incorporated
pru1_buslatches.asm                                                  PAGE   60

    3230        .dwattr $C$DW$268, DW_AT_location[DW_OP_regx 0x68]
    3231
    3232$C$DW$269       .dwtag  DW_TAG_TI_assign_register
    3233        .dwattr $C$DW$269, DW_AT_name("R26_b1")
    3234        .dwattr $C$DW$269, DW_AT_location[DW_OP_regx 0x69]
    3235
    3236$C$DW$270       .dwtag  DW_TAG_TI_assign_register
    3237        .dwattr $C$DW$270, DW_AT_name("R26_b2")
    3238        .dwattr $C$DW$270, DW_AT_location[DW_OP_regx 0x6a]
    3239
    3240$C$DW$271       .dwtag  DW_TAG_TI_assign_register
    3241        .dwattr $C$DW$271, DW_AT_name("R26_b3")
    3242        .dwattr $C$DW$271, DW_AT_location[DW_OP_regx 0x6b]
    3243
    3244$C$DW$272       .dwtag  DW_TAG_TI_assign_register
    3245        .dwattr $C$DW$272, DW_AT_name("R27_b0")
    3246        .dwattr $C$DW$272, DW_AT_location[DW_OP_regx 0x6c]
    3247
    3248$C$DW$273       .dwtag  DW_TAG_TI_assign_register
    3249        .dwattr $C$DW$273, DW_AT_name("R27_b1")
    3250        .dwattr $C$DW$273, DW_AT_location[DW_OP_regx 0x6d]
    3251
    3252$C$DW$274       .dwtag  DW_TAG_TI_assign_register
    3253        .dwattr $C$DW$274, DW_AT_name("R27_b2")
    3254        .dwattr $C$DW$274, DW_AT_location[DW_OP_regx 0x6e]
    3255
    3256$C$DW$275       .dwtag  DW_TAG_TI_assign_register
    3257        .dwattr $C$DW$275, DW_AT_name("R27_b3")
    3258        .dwattr $C$DW$275, DW_AT_location[DW_OP_regx 0x6f]
    3259
    3260$C$DW$276       .dwtag  DW_TAG_TI_assign_register
    3261        .dwattr $C$DW$276, DW_AT_name("R28_b0")
    3262        .dwattr $C$DW$276, DW_AT_location[DW_OP_regx 0x70]
    3263
    3264$C$DW$277       .dwtag  DW_TAG_TI_assign_register
    3265        .dwattr $C$DW$277, DW_AT_name("R28_b1")
    3266        .dwattr $C$DW$277, DW_AT_location[DW_OP_regx 0x71]
    3267
    3268$C$DW$278       .dwtag  DW_TAG_TI_assign_register
    3269        .dwattr $C$DW$278, DW_AT_name("R28_b2")
    3270        .dwattr $C$DW$278, DW_AT_location[DW_OP_regx 0x72]
    3271
    3272$C$DW$279       .dwtag  DW_TAG_TI_assign_register
    3273        .dwattr $C$DW$279, DW_AT_name("R28_b3")
    3274        .dwattr $C$DW$279, DW_AT_location[DW_OP_regx 0x73]
    3275
    3276$C$DW$280       .dwtag  DW_TAG_TI_assign_register
    3277        .dwattr $C$DW$280, DW_AT_name("R29_b0")
    3278        .dwattr $C$DW$280, DW_AT_location[DW_OP_regx 0x74]
    3279
    3280$C$DW$281       .dwtag  DW_TAG_TI_assign_register
    3281        .dwattr $C$DW$281, DW_AT_name("R29_b1")
    3282        .dwattr $C$DW$281, DW_AT_location[DW_OP_regx 0x75]
    3283
    3284$C$DW$282       .dwtag  DW_TAG_TI_assign_register
PRU Assembler Unix v2.3.1 Sun Mar 31 20:55:30 2019

Tools Copyright (c) 2012-2017 Texas Instruments Incorporated
pru1_buslatches.asm                                                  PAGE   61

    3285        .dwattr $C$DW$282, DW_AT_name("R29_b2")
    3286        .dwattr $C$DW$282, DW_AT_location[DW_OP_regx 0x76]
    3287
    3288$C$DW$283       .dwtag  DW_TAG_TI_assign_register
    3289        .dwattr $C$DW$283, DW_AT_name("R29_b3")
    3290        .dwattr $C$DW$283, DW_AT_location[DW_OP_regx 0x77]
    3291
    3292$C$DW$284       .dwtag  DW_TAG_TI_assign_register
    3293        .dwattr $C$DW$284, DW_AT_name("R30_b0")
    3294        .dwattr $C$DW$284, DW_AT_location[DW_OP_regx 0x78]
    3295
    3296$C$DW$285       .dwtag  DW_TAG_TI_assign_register
    3297        .dwattr $C$DW$285, DW_AT_name("R30_b1")
    3298        .dwattr $C$DW$285, DW_AT_location[DW_OP_regx 0x79]
    3299
    3300$C$DW$286       .dwtag  DW_TAG_TI_assign_register
    3301        .dwattr $C$DW$286, DW_AT_name("R30_b2")
    3302        .dwattr $C$DW$286, DW_AT_location[DW_OP_regx 0x7a]
    3303
    3304$C$DW$287       .dwtag  DW_TAG_TI_assign_register
    3305        .dwattr $C$DW$287, DW_AT_name("R30_b3")
    3306        .dwattr $C$DW$287, DW_AT_location[DW_OP_regx 0x7b]
    3307
    3308$C$DW$288       .dwtag  DW_TAG_TI_assign_register
    3309        .dwattr $C$DW$288, DW_AT_name("R31_b0")
    3310        .dwattr $C$DW$288, DW_AT_location[DW_OP_regx 0x7c]
    3311
    3312$C$DW$289       .dwtag  DW_TAG_TI_assign_register
    3313        .dwattr $C$DW$289, DW_AT_name("R31_b1")
    3314        .dwattr $C$DW$289, DW_AT_location[DW_OP_regx 0x7d]
    3315
    3316$C$DW$290       .dwtag  DW_TAG_TI_assign_register
    3317        .dwattr $C$DW$290, DW_AT_name("R31_b2")
    3318        .dwattr $C$DW$290, DW_AT_location[DW_OP_regx 0x7e]
    3319
    3320$C$DW$291       .dwtag  DW_TAG_TI_assign_register
    3321        .dwattr $C$DW$291, DW_AT_name("R31_b3")
    3322        .dwattr $C$DW$291, DW_AT_location[DW_OP_regx 0x7f]
    3323
    3324        .dwendtag $C$DW$CU
    3325

No Assembly Errors, No Assembly Warnings
